Archive member included because of file (symbol)

C:/NXP/S32DS_ARM_v2.0/Cross_Tools/gcc-arm-none-eabi-4_9/arm-none-eabi/newlib/lib/armv7e-m/fpu\libc_nano.a(lib_a-exit.o)
                              C:/NXP/S32DS_ARM_v2.0/Cross_Tools/gcc-arm-none-eabi-4_9/arm-none-eabi/newlib/lib/armv7e-m/fpu/crt0.o (exit)
C:/NXP/S32DS_ARM_v2.0/Cross_Tools/gcc-arm-none-eabi-4_9/arm-none-eabi/newlib/lib/armv7e-m/fpu\libc_nano.a(lib_a-impure.o)
                              C:/NXP/S32DS_ARM_v2.0/Cross_Tools/gcc-arm-none-eabi-4_9/arm-none-eabi/newlib/lib/armv7e-m/fpu\libc_nano.a(lib_a-exit.o) (_global_impure_ptr)
C:/NXP/S32DS_ARM_v2.0/Cross_Tools/gcc-arm-none-eabi-4_9/arm-none-eabi/newlib/lib/armv7e-m/fpu\libc_nano.a(lib_a-init.o)
                              C:/NXP/S32DS_ARM_v2.0/Cross_Tools/gcc-arm-none-eabi-4_9/arm-none-eabi/newlib/lib/armv7e-m/fpu/crt0.o (__libc_init_array)
C:/NXP/S32DS_ARM_v2.0/Cross_Tools/gcc-arm-none-eabi-4_9/arm-none-eabi/newlib/lib/armv7e-m/fpu\libc_nano.a(lib_a-memset.o)
                              C:/NXP/S32DS_ARM_v2.0/Cross_Tools/gcc-arm-none-eabi-4_9/arm-none-eabi/newlib/lib/armv7e-m/fpu/crt0.o (memset)
C:/NXP/S32DS_ARM_v2.0/Cross_Tools/gcc-arm-none-eabi-4_9/arm-none-eabi/newlib/lib/armv7e-m/fpu\librdimon_nano.a(rdimon-_exit.o)
                              C:/NXP/S32DS_ARM_v2.0/Cross_Tools/gcc-arm-none-eabi-4_9/arm-none-eabi/newlib/lib/armv7e-m/fpu\libc_nano.a(lib_a-exit.o) (_exit)
C:/NXP/S32DS_ARM_v2.0/Cross_Tools/gcc-arm-none-eabi-4_9/arm-none-eabi/newlib/lib/armv7e-m/fpu\librdimon_nano.a(rdimon-_kill.o)
                              C:/NXP/S32DS_ARM_v2.0/Cross_Tools/gcc-arm-none-eabi-4_9/arm-none-eabi/newlib/lib/armv7e-m/fpu\librdimon_nano.a(rdimon-_exit.o) (_kill)

Allocating common symbols
Common symbol       size              file

g_xtal0ClkFreq      0x4               ./SDK/platform/drivers/src/clock/S32K1xx/clock_S32K1xx.o
adcConvDone         0x1               ./Sources/main.o
g_RtcClkInFreq      0x4               ./SDK/platform/drivers/src/clock/S32K1xx/clock_S32K1xx.o
adcRawValue         0x2               ./Sources/main.o
g_TClkFreq          0xc               ./SDK/platform/drivers/src/clock/S32K1xx/clock_S32K1xx.o

Discarded input sections

 .text          0x00000000        0x0 c:/nxp/s32ds_arm_v2.0/cross_tools/gcc-arm-none-eabi-4_9/bin/../lib/gcc/arm-none-eabi/4.9.3/armv7e-m/fpu/crti.o
 .data          0x00000000        0x0 c:/nxp/s32ds_arm_v2.0/cross_tools/gcc-arm-none-eabi-4_9/bin/../lib/gcc/arm-none-eabi/4.9.3/armv7e-m/fpu/crti.o
 .bss           0x00000000        0x0 c:/nxp/s32ds_arm_v2.0/cross_tools/gcc-arm-none-eabi-4_9/bin/../lib/gcc/arm-none-eabi/4.9.3/armv7e-m/fpu/crti.o
 .data          0x00000000        0x4 c:/nxp/s32ds_arm_v2.0/cross_tools/gcc-arm-none-eabi-4_9/bin/../lib/gcc/arm-none-eabi/4.9.3/armv7e-m/fpu/crtbegin.o
 .text          0x00000000       0x74 C:/NXP/S32DS_ARM_v2.0/Cross_Tools/gcc-arm-none-eabi-4_9/arm-none-eabi/newlib/lib/armv7e-m/fpu/crt0.o
 .data          0x00000000        0x0 C:/NXP/S32DS_ARM_v2.0/Cross_Tools/gcc-arm-none-eabi-4_9/arm-none-eabi/newlib/lib/armv7e-m/fpu/crt0.o
 .bss           0x00000000        0x0 C:/NXP/S32DS_ARM_v2.0/Cross_Tools/gcc-arm-none-eabi-4_9/arm-none-eabi/newlib/lib/armv7e-m/fpu/crt0.o
 .ARM.extab     0x00000000        0x0 C:/NXP/S32DS_ARM_v2.0/Cross_Tools/gcc-arm-none-eabi-4_9/arm-none-eabi/newlib/lib/armv7e-m/fpu/crt0.o
 .ARM.exidx     0x00000000        0x8 C:/NXP/S32DS_ARM_v2.0/Cross_Tools/gcc-arm-none-eabi-4_9/arm-none-eabi/newlib/lib/armv7e-m/fpu/crt0.o
 .ARM.attributes
                0x00000000       0x20 C:/NXP/S32DS_ARM_v2.0/Cross_Tools/gcc-arm-none-eabi-4_9/arm-none-eabi/newlib/lib/armv7e-m/fpu/crt0.o
 .group         0x00000000        0x8 ./Sources/main.o
 .group         0x00000000        0x8 ./Sources/main.o
 .group         0x00000000        0x8 ./Sources/main.o
 .group         0x00000000        0x8 ./Sources/main.o
 .group         0x00000000        0x8 ./Sources/main.o
 .group         0x00000000        0x8 ./Sources/main.o
 .group         0x00000000        0x8 ./Sources/main.o
 .group         0x00000000        0x8 ./Sources/main.o
 .group         0x00000000        0x8 ./Sources/main.o
 .group         0x00000000        0x8 ./Sources/main.o
 .group         0x00000000        0x8 ./Sources/main.o
 .group         0x00000000        0x8 ./Sources/main.o
 .group         0x00000000        0x8 ./Sources/main.o
 .group         0x00000000        0x8 ./Sources/main.o
 .group         0x00000000        0x8 ./Sources/main.o
 .group         0x00000000        0x8 ./Sources/main.o
 .text          0x00000000        0x0 ./Sources/main.o
 .data          0x00000000        0x0 ./Sources/main.o
 .bss           0x00000000        0x0 ./Sources/main.o
 .bss.exit_code
                0x00000000        0x4 ./Sources/main.o
 .group         0x00000000        0x8 ./Sources/helper_functions.o
 .group         0x00000000        0x8 ./Sources/helper_functions.o
 .group         0x00000000        0x8 ./Sources/helper_functions.o
 .group         0x00000000        0x8 ./Sources/helper_functions.o
 .group         0x00000000        0x8 ./Sources/helper_functions.o
 .group         0x00000000        0x8 ./Sources/helper_functions.o
 .group         0x00000000        0x8 ./Sources/helper_functions.o
 .group         0x00000000        0x8 ./Sources/helper_functions.o
 .group         0x00000000        0x8 ./Sources/helper_functions.o
 .group         0x00000000        0x8 ./Sources/helper_functions.o
 .group         0x00000000        0x8 ./Sources/helper_functions.o
 .group         0x00000000        0x8 ./Sources/helper_functions.o
 .text          0x00000000        0x0 ./Sources/helper_functions.o
 .data          0x00000000        0x0 ./Sources/helper_functions.o
 .bss           0x00000000        0x0 ./Sources/helper_functions.o
 .text.PDB_TEST_AdcPreTrigger
                0x00000000       0xa8 ./Sources/helper_functions.o
 .rodata.str1.4
                0x00000000       0x2c ./Sources/helper_functions.o
 .debug_macro   0x00000000       0x22 ./Sources/helper_functions.o
 .debug_macro   0x00000000       0x44 ./Sources/helper_functions.o
 .debug_macro   0x00000000       0xe3 ./Sources/helper_functions.o
 .debug_macro   0x00000000       0x22 ./Sources/helper_functions.o
 .debug_macro   0x00000000      0x1df ./Sources/helper_functions.o
 .debug_macro   0x00000000       0x10 ./Sources/helper_functions.o
 .debug_macro   0x00000000       0x73 ./Sources/helper_functions.o
 .debug_macro   0x00000000      0x978 ./Sources/helper_functions.o
 .debug_macro   0x00000000       0x22 ./Sources/helper_functions.o
 .debug_macro   0x00000000       0x10 ./Sources/helper_functions.o
 .debug_macro   0x00000000       0x22 ./Sources/helper_functions.o
 .group         0x00000000        0x8 ./SDK/platform/drivers/src/pins/pins_port_hw_access.o
 .group         0x00000000        0x8 ./SDK/platform/drivers/src/pins/pins_port_hw_access.o
 .group         0x00000000        0x8 ./SDK/platform/drivers/src/pins/pins_port_hw_access.o
 .group         0x00000000        0x8 ./SDK/platform/drivers/src/pins/pins_port_hw_access.o
 .group         0x00000000        0x8 ./SDK/platform/drivers/src/pins/pins_port_hw_access.o
 .group         0x00000000        0x8 ./SDK/platform/drivers/src/pins/pins_port_hw_access.o
 .group         0x00000000        0x8 ./SDK/platform/drivers/src/pins/pins_port_hw_access.o
 .group         0x00000000        0x8 ./SDK/platform/drivers/src/pins/pins_port_hw_access.o
 .group         0x00000000        0x8 ./SDK/platform/drivers/src/pins/pins_port_hw_access.o
 .group         0x00000000        0x8 ./SDK/platform/drivers/src/pins/pins_port_hw_access.o
 .group         0x00000000        0x8 ./SDK/platform/drivers/src/pins/pins_port_hw_access.o
 .group         0x00000000        0x8 ./SDK/platform/drivers/src/pins/pins_port_hw_access.o
 .text          0x00000000        0x0 ./SDK/platform/drivers/src/pins/pins_port_hw_access.o
 .data          0x00000000        0x0 ./SDK/platform/drivers/src/pins/pins_port_hw_access.o
 .bss           0x00000000        0x0 ./SDK/platform/drivers/src/pins/pins_port_hw_access.o
 .debug_macro   0x00000000      0x166 ./SDK/platform/drivers/src/pins/pins_port_hw_access.o
 .debug_macro   0x00000000       0x10 ./SDK/platform/drivers/src/pins/pins_port_hw_access.o
 .debug_macro   0x00000000       0x73 ./SDK/platform/drivers/src/pins/pins_port_hw_access.o
 .debug_macro   0x00000000       0x19 ./SDK/platform/drivers/src/pins/pins_port_hw_access.o
 .debug_macro   0x00000000       0x22 ./SDK/platform/drivers/src/pins/pins_port_hw_access.o
 .debug_macro   0x00000000       0x44 ./SDK/platform/drivers/src/pins/pins_port_hw_access.o
 .debug_macro   0x00000000       0xe3 ./SDK/platform/drivers/src/pins/pins_port_hw_access.o
 .debug_macro   0x00000000       0x22 ./SDK/platform/drivers/src/pins/pins_port_hw_access.o
 .debug_macro   0x00000000      0x1df ./SDK/platform/drivers/src/pins/pins_port_hw_access.o
 .debug_macro   0x00000000     0xdf8d ./SDK/platform/drivers/src/pins/pins_port_hw_access.o
 .debug_macro   0x00000000      0x978 ./SDK/platform/drivers/src/pins/pins_port_hw_access.o
 .debug_macro   0x00000000       0x22 ./SDK/platform/drivers/src/pins/pins_port_hw_access.o
 .group         0x00000000        0x8 ./SDK/platform/drivers/src/pins/pins_driver.o
 .group         0x00000000        0x8 ./SDK/platform/drivers/src/pins/pins_driver.o
 .group         0x00000000        0x8 ./SDK/platform/drivers/src/pins/pins_driver.o
 .group         0x00000000        0x8 ./SDK/platform/drivers/src/pins/pins_driver.o
 .group         0x00000000        0x8 ./SDK/platform/drivers/src/pins/pins_driver.o
 .group         0x00000000        0x8 ./SDK/platform/drivers/src/pins/pins_driver.o
 .group         0x00000000        0x8 ./SDK/platform/drivers/src/pins/pins_driver.o
 .group         0x00000000        0x8 ./SDK/platform/drivers/src/pins/pins_driver.o
 .group         0x00000000        0x8 ./SDK/platform/drivers/src/pins/pins_driver.o
 .group         0x00000000        0x8 ./SDK/platform/drivers/src/pins/pins_driver.o
 .group         0x00000000        0x8 ./SDK/platform/drivers/src/pins/pins_driver.o
 .group         0x00000000        0x8 ./SDK/platform/drivers/src/pins/pins_driver.o
 .text          0x00000000        0x0 ./SDK/platform/drivers/src/pins/pins_driver.o
 .data          0x00000000        0x0 ./SDK/platform/drivers/src/pins/pins_driver.o
 .bss           0x00000000        0x0 ./SDK/platform/drivers/src/pins/pins_driver.o
 .text.PINS_DRV_SetPullSel
                0x00000000       0x3c ./SDK/platform/drivers/src/pins/pins_driver.o
 .text.PINS_DRV_SetMuxModeSel
                0x00000000       0x18 ./SDK/platform/drivers/src/pins/pins_driver.o
 .text.PINS_DRV_SetPinIntSel
                0x00000000       0x18 ./SDK/platform/drivers/src/pins/pins_driver.o
 .text.PINS_DRV_GetPinIntSel
                0x00000000        0xc ./SDK/platform/drivers/src/pins/pins_driver.o
 .text.PINS_DRV_ClearPinIntFlagCmd
                0x00000000       0x10 ./SDK/platform/drivers/src/pins/pins_driver.o
 .text.PINS_DRV_GetPortIntFlag
                0x00000000        0x8 ./SDK/platform/drivers/src/pins/pins_driver.o
 .text.PINS_DRV_ClearPortIntFlagCmd
                0x00000000        0xc ./SDK/platform/drivers/src/pins/pins_driver.o
 .text.PINS_DRV_GetPinsDirection
                0x00000000        0x4 ./SDK/platform/drivers/src/pins/pins_driver.o
 .text.PINS_DRV_SetPinsDirection
                0x00000000        0x4 ./SDK/platform/drivers/src/pins/pins_driver.o
 .text.PINS_DRV_SetPortInputDisable
                0x00000000        0x4 ./SDK/platform/drivers/src/pins/pins_driver.o
 .text.PINS_DRV_GetPortInputDisable
                0x00000000        0x4 ./SDK/platform/drivers/src/pins/pins_driver.o
 .text.PINS_DRV_WritePins
                0x00000000        0x4 ./SDK/platform/drivers/src/pins/pins_driver.o
 .text.PINS_DRV_GetPinsOutput
                0x00000000        0x4 ./SDK/platform/drivers/src/pins/pins_driver.o
 .text.PINS_DRV_SetPins
                0x00000000        0x4 ./SDK/platform/drivers/src/pins/pins_driver.o
 .text.PINS_DRV_TogglePins
                0x00000000        0x4 ./SDK/platform/drivers/src/pins/pins_driver.o
 .text.PINS_DRV_ReadPins
                0x00000000        0x4 ./SDK/platform/drivers/src/pins/pins_driver.o
 .debug_macro   0x00000000       0x10 ./SDK/platform/drivers/src/pins/pins_driver.o
 .debug_macro   0x00000000       0x73 ./SDK/platform/drivers/src/pins/pins_driver.o
 .debug_macro   0x00000000       0x19 ./SDK/platform/drivers/src/pins/pins_driver.o
 .debug_macro   0x00000000       0x22 ./SDK/platform/drivers/src/pins/pins_driver.o
 .debug_macro   0x00000000       0x44 ./SDK/platform/drivers/src/pins/pins_driver.o
 .debug_macro   0x00000000       0xe3 ./SDK/platform/drivers/src/pins/pins_driver.o
 .debug_macro   0x00000000       0x22 ./SDK/platform/drivers/src/pins/pins_driver.o
 .debug_macro   0x00000000      0x1df ./SDK/platform/drivers/src/pins/pins_driver.o
 .debug_macro   0x00000000     0xdf8d ./SDK/platform/drivers/src/pins/pins_driver.o
 .debug_macro   0x00000000      0x978 ./SDK/platform/drivers/src/pins/pins_driver.o
 .debug_macro   0x00000000       0x22 ./SDK/platform/drivers/src/pins/pins_driver.o
 .debug_macro   0x00000000      0x166 ./SDK/platform/drivers/src/pins/pins_driver.o
 .group         0x00000000        0x8 ./SDK/platform/drivers/src/pdb/pdb_hw_access.o
 .group         0x00000000        0x8 ./SDK/platform/drivers/src/pdb/pdb_hw_access.o
 .group         0x00000000        0x8 ./SDK/platform/drivers/src/pdb/pdb_hw_access.o
 .group         0x00000000        0x8 ./SDK/platform/drivers/src/pdb/pdb_hw_access.o
 .group         0x00000000        0x8 ./SDK/platform/drivers/src/pdb/pdb_hw_access.o
 .group         0x00000000        0x8 ./SDK/platform/drivers/src/pdb/pdb_hw_access.o
 .group         0x00000000        0x8 ./SDK/platform/drivers/src/pdb/pdb_hw_access.o
 .group         0x00000000        0x8 ./SDK/platform/drivers/src/pdb/pdb_hw_access.o
 .group         0x00000000        0x8 ./SDK/platform/drivers/src/pdb/pdb_hw_access.o
 .group         0x00000000        0x8 ./SDK/platform/drivers/src/pdb/pdb_hw_access.o
 .group         0x00000000        0x8 ./SDK/platform/drivers/src/pdb/pdb_hw_access.o
 .group         0x00000000        0x8 ./SDK/platform/drivers/src/pdb/pdb_hw_access.o
 .group         0x00000000        0x8 ./SDK/platform/drivers/src/pdb/pdb_hw_access.o
 .text          0x00000000        0x0 ./SDK/platform/drivers/src/pdb/pdb_hw_access.o
 .data          0x00000000        0x0 ./SDK/platform/drivers/src/pdb/pdb_hw_access.o
 .bss           0x00000000        0x0 ./SDK/platform/drivers/src/pdb/pdb_hw_access.o
 .text.PDB_ClearAdcPreTriggerFlags
                0x00000000       0x28 ./SDK/platform/drivers/src/pdb/pdb_hw_access.o
 .text.PDB_ClearAdcPreTriggerSeqErrFlags
                0x00000000       0x24 ./SDK/platform/drivers/src/pdb/pdb_hw_access.o
 .text.PDB_SetCmpPulseOutEnable
                0x00000000       0x18 ./SDK/platform/drivers/src/pdb/pdb_hw_access.o
 .debug_macro   0x00000000      0x166 ./SDK/platform/drivers/src/pdb/pdb_hw_access.o
 .debug_macro   0x00000000       0x22 ./SDK/platform/drivers/src/pdb/pdb_hw_access.o
 .debug_macro   0x00000000       0x44 ./SDK/platform/drivers/src/pdb/pdb_hw_access.o
 .debug_macro   0x00000000       0xe3 ./SDK/platform/drivers/src/pdb/pdb_hw_access.o
 .debug_macro   0x00000000       0x22 ./SDK/platform/drivers/src/pdb/pdb_hw_access.o
 .debug_macro   0x00000000      0x1df ./SDK/platform/drivers/src/pdb/pdb_hw_access.o
 .debug_macro   0x00000000       0x22 ./SDK/platform/drivers/src/pdb/pdb_hw_access.o
 .debug_macro   0x00000000       0x10 ./SDK/platform/drivers/src/pdb/pdb_hw_access.o
 .debug_macro   0x00000000       0x73 ./SDK/platform/drivers/src/pdb/pdb_hw_access.o
 .debug_macro   0x00000000     0xdfa2 ./SDK/platform/drivers/src/pdb/pdb_hw_access.o
 .debug_macro   0x00000000      0x978 ./SDK/platform/drivers/src/pdb/pdb_hw_access.o
 .debug_macro   0x00000000       0x10 ./SDK/platform/drivers/src/pdb/pdb_hw_access.o
 .group         0x00000000        0x8 ./SDK/platform/drivers/src/pdb/pdb_driver.o
 .group         0x00000000        0x8 ./SDK/platform/drivers/src/pdb/pdb_driver.o
 .group         0x00000000        0x8 ./SDK/platform/drivers/src/pdb/pdb_driver.o
 .group         0x00000000        0x8 ./SDK/platform/drivers/src/pdb/pdb_driver.o
 .group         0x00000000        0x8 ./SDK/platform/drivers/src/pdb/pdb_driver.o
 .group         0x00000000        0x8 ./SDK/platform/drivers/src/pdb/pdb_driver.o
 .group         0x00000000        0x8 ./SDK/platform/drivers/src/pdb/pdb_driver.o
 .group         0x00000000        0x8 ./SDK/platform/drivers/src/pdb/pdb_driver.o
 .group         0x00000000        0x8 ./SDK/platform/drivers/src/pdb/pdb_driver.o
 .group         0x00000000        0x8 ./SDK/platform/drivers/src/pdb/pdb_driver.o
 .group         0x00000000        0x8 ./SDK/platform/drivers/src/pdb/pdb_driver.o
 .group         0x00000000        0x8 ./SDK/platform/drivers/src/pdb/pdb_driver.o
 .group         0x00000000        0x8 ./SDK/platform/drivers/src/pdb/pdb_driver.o
 .text          0x00000000        0x0 ./SDK/platform/drivers/src/pdb/pdb_driver.o
 .data          0x00000000        0x0 ./SDK/platform/drivers/src/pdb/pdb_driver.o
 .bss           0x00000000        0x0 ./SDK/platform/drivers/src/pdb/pdb_driver.o
 .text.PDB_DRV_Deinit
                0x00000000       0x24 ./SDK/platform/drivers/src/pdb/pdb_driver.o
 .text.PDB_DRV_GetTimerValue
                0x00000000       0x10 ./SDK/platform/drivers/src/pdb/pdb_driver.o
 .text.PDB_DRV_GetTimerIntFlag
                0x00000000       0x14 ./SDK/platform/drivers/src/pdb/pdb_driver.o
 .text.PDB_DRV_GetAdcPreTriggerFlags
                0x00000000       0x1c ./SDK/platform/drivers/src/pdb/pdb_driver.o
 .text.PDB_DRV_ClearAdcPreTriggerFlags
                0x00000000       0x14 ./SDK/platform/drivers/src/pdb/pdb_driver.o
 .text.PDB_DRV_GetAdcPreTriggerSeqErrFlags
                0x00000000       0x1c ./SDK/platform/drivers/src/pdb/pdb_driver.o
 .text.PDB_DRV_ClearAdcPreTriggerSeqErrFlags
                0x00000000       0x14 ./SDK/platform/drivers/src/pdb/pdb_driver.o
 .text.PDB_DRV_SetCmpPulseOutEnable
                0x00000000       0x14 ./SDK/platform/drivers/src/pdb/pdb_driver.o
 .text.PDB_DRV_SetCmpPulseOutDelayForHigh
                0x00000000       0x18 ./SDK/platform/drivers/src/pdb/pdb_driver.o
 .text.PDB_DRV_SetCmpPulseOutDelayForLow
                0x00000000       0x18 ./SDK/platform/drivers/src/pdb/pdb_driver.o
 .debug_macro   0x00000000       0x22 ./SDK/platform/drivers/src/pdb/pdb_driver.o
 .debug_macro   0x00000000       0x44 ./SDK/platform/drivers/src/pdb/pdb_driver.o
 .debug_macro   0x00000000       0xe3 ./SDK/platform/drivers/src/pdb/pdb_driver.o
 .debug_macro   0x00000000       0x22 ./SDK/platform/drivers/src/pdb/pdb_driver.o
 .debug_macro   0x00000000      0x1df ./SDK/platform/drivers/src/pdb/pdb_driver.o
 .debug_macro   0x00000000       0x22 ./SDK/platform/drivers/src/pdb/pdb_driver.o
 .debug_macro   0x00000000       0x10 ./SDK/platform/drivers/src/pdb/pdb_driver.o
 .debug_macro   0x00000000       0x73 ./SDK/platform/drivers/src/pdb/pdb_driver.o
 .debug_macro   0x00000000     0xdfa2 ./SDK/platform/drivers/src/pdb/pdb_driver.o
 .debug_macro   0x00000000      0x978 ./SDK/platform/drivers/src/pdb/pdb_driver.o
 .debug_macro   0x00000000       0x10 ./SDK/platform/drivers/src/pdb/pdb_driver.o
 .debug_macro   0x00000000       0x10 ./SDK/platform/drivers/src/pdb/pdb_driver.o
 .debug_macro   0x00000000      0x166 ./SDK/platform/drivers/src/pdb/pdb_driver.o
 .group         0x00000000        0x8 ./SDK/platform/drivers/src/interrupt/interrupt_manager.o
 .group         0x00000000        0x8 ./SDK/platform/drivers/src/interrupt/interrupt_manager.o
 .group         0x00000000        0x8 ./SDK/platform/drivers/src/interrupt/interrupt_manager.o
 .group         0x00000000        0x8 ./SDK/platform/drivers/src/interrupt/interrupt_manager.o
 .group         0x00000000        0x8 ./SDK/platform/drivers/src/interrupt/interrupt_manager.o
 .group         0x00000000        0x8 ./SDK/platform/drivers/src/interrupt/interrupt_manager.o
 .group         0x00000000        0x8 ./SDK/platform/drivers/src/interrupt/interrupt_manager.o
 .group         0x00000000        0x8 ./SDK/platform/drivers/src/interrupt/interrupt_manager.o
 .group         0x00000000        0x8 ./SDK/platform/drivers/src/interrupt/interrupt_manager.o
 .group         0x00000000        0x8 ./SDK/platform/drivers/src/interrupt/interrupt_manager.o
 .group         0x00000000        0x8 ./SDK/platform/drivers/src/interrupt/interrupt_manager.o
 .text          0x00000000        0x0 ./SDK/platform/drivers/src/interrupt/interrupt_manager.o
 .data          0x00000000        0x0 ./SDK/platform/drivers/src/interrupt/interrupt_manager.o
 .bss           0x00000000        0x0 ./SDK/platform/drivers/src/interrupt/interrupt_manager.o
 .text.INT_SYS_SetPriority
                0x00000000       0x5c ./SDK/platform/drivers/src/interrupt/interrupt_manager.o
 .text.INT_SYS_GetPriority
                0x00000000       0x44 ./SDK/platform/drivers/src/interrupt/interrupt_manager.o
 .text.INT_SYS_ClearPending
                0x00000000       0x18 ./SDK/platform/drivers/src/interrupt/interrupt_manager.o
 .text.INT_SYS_SetPending
                0x00000000       0x18 ./SDK/platform/drivers/src/interrupt/interrupt_manager.o
 .text.INT_SYS_GetPending
                0x00000000       0x1c ./SDK/platform/drivers/src/interrupt/interrupt_manager.o
 .text.INT_SYS_GetActive
                0x00000000       0x1c ./SDK/platform/drivers/src/interrupt/interrupt_manager.o
 .debug_macro   0x00000000       0x10 ./SDK/platform/drivers/src/interrupt/interrupt_manager.o
 .debug_macro   0x00000000       0x73 ./SDK/platform/drivers/src/interrupt/interrupt_manager.o
 .debug_macro   0x00000000       0x19 ./SDK/platform/drivers/src/interrupt/interrupt_manager.o
 .debug_macro   0x00000000       0x22 ./SDK/platform/drivers/src/interrupt/interrupt_manager.o
 .debug_macro   0x00000000       0x44 ./SDK/platform/drivers/src/interrupt/interrupt_manager.o
 .debug_macro   0x00000000       0xe3 ./SDK/platform/drivers/src/interrupt/interrupt_manager.o
 .debug_macro   0x00000000       0x22 ./SDK/platform/drivers/src/interrupt/interrupt_manager.o
 .debug_macro   0x00000000      0x1df ./SDK/platform/drivers/src/interrupt/interrupt_manager.o
 .debug_macro   0x00000000     0xdf8d ./SDK/platform/drivers/src/interrupt/interrupt_manager.o
 .debug_macro   0x00000000      0x978 ./SDK/platform/drivers/src/interrupt/interrupt_manager.o
 .debug_macro   0x00000000       0x22 ./SDK/platform/drivers/src/interrupt/interrupt_manager.o
 .group         0x00000000        0x8 ./SDK/platform/drivers/src/clock/clock_manager.o
 .group         0x00000000        0x8 ./SDK/platform/drivers/src/clock/clock_manager.o
 .group         0x00000000        0x8 ./SDK/platform/drivers/src/clock/clock_manager.o
 .group         0x00000000        0x8 ./SDK/platform/drivers/src/clock/clock_manager.o
 .group         0x00000000        0x8 ./SDK/platform/drivers/src/clock/clock_manager.o
 .group         0x00000000        0x8 ./SDK/platform/drivers/src/clock/clock_manager.o
 .group         0x00000000        0x8 ./SDK/platform/drivers/src/clock/clock_manager.o
 .group         0x00000000        0x8 ./SDK/platform/drivers/src/clock/clock_manager.o
 .group         0x00000000        0x8 ./SDK/platform/drivers/src/clock/clock_manager.o
 .group         0x00000000        0x8 ./SDK/platform/drivers/src/clock/clock_manager.o
 .group         0x00000000        0x8 ./SDK/platform/drivers/src/clock/clock_manager.o
 .group         0x00000000        0x8 ./SDK/platform/drivers/src/clock/clock_manager.o
 .group         0x00000000        0x8 ./SDK/platform/drivers/src/clock/clock_manager.o
 .text          0x00000000        0x0 ./SDK/platform/drivers/src/clock/clock_manager.o
 .data          0x00000000        0x0 ./SDK/platform/drivers/src/clock/clock_manager.o
 .bss           0x00000000        0x0 ./SDK/platform/drivers/src/clock/clock_manager.o
 .text.CLOCK_SYS_GetCurrentConfiguration
                0x00000000        0xc ./SDK/platform/drivers/src/clock/clock_manager.o
 .text.CLOCK_SYS_GetErrorCallback
                0x00000000       0x1c ./SDK/platform/drivers/src/clock/clock_manager.o
 .debug_macro   0x00000000      0x166 ./SDK/platform/drivers/src/clock/clock_manager.o
 .debug_macro   0x00000000       0x10 ./SDK/platform/drivers/src/clock/clock_manager.o
 .debug_macro   0x00000000       0x73 ./SDK/platform/drivers/src/clock/clock_manager.o
 .debug_macro   0x00000000       0x19 ./SDK/platform/drivers/src/clock/clock_manager.o
 .debug_macro   0x00000000       0x22 ./SDK/platform/drivers/src/clock/clock_manager.o
 .debug_macro   0x00000000       0x44 ./SDK/platform/drivers/src/clock/clock_manager.o
 .debug_macro   0x00000000       0xe3 ./SDK/platform/drivers/src/clock/clock_manager.o
 .debug_macro   0x00000000       0x22 ./SDK/platform/drivers/src/clock/clock_manager.o
 .debug_macro   0x00000000      0x1df ./SDK/platform/drivers/src/clock/clock_manager.o
 .debug_macro   0x00000000     0xdf8d ./SDK/platform/drivers/src/clock/clock_manager.o
 .debug_macro   0x00000000      0x978 ./SDK/platform/drivers/src/clock/clock_manager.o
 .debug_macro   0x00000000       0x22 ./SDK/platform/drivers/src/clock/clock_manager.o
 .debug_macro   0x00000000       0x10 ./SDK/platform/drivers/src/clock/clock_manager.o
 .group         0x00000000        0x8 ./SDK/platform/drivers/src/clock/S32K1xx/clock_S32K1xx.o
 .group         0x00000000        0x8 ./SDK/platform/drivers/src/clock/S32K1xx/clock_S32K1xx.o
 .group         0x00000000        0x8 ./SDK/platform/drivers/src/clock/S32K1xx/clock_S32K1xx.o
 .group         0x00000000        0x8 ./SDK/platform/drivers/src/clock/S32K1xx/clock_S32K1xx.o
 .group         0x00000000        0x8 ./SDK/platform/drivers/src/clock/S32K1xx/clock_S32K1xx.o
 .group         0x00000000        0x8 ./SDK/platform/drivers/src/clock/S32K1xx/clock_S32K1xx.o
 .group         0x00000000        0x8 ./SDK/platform/drivers/src/clock/S32K1xx/clock_S32K1xx.o
 .group         0x00000000        0x8 ./SDK/platform/drivers/src/clock/S32K1xx/clock_S32K1xx.o
 .group         0x00000000        0x8 ./SDK/platform/drivers/src/clock/S32K1xx/clock_S32K1xx.o
 .group         0x00000000        0x8 ./SDK/platform/drivers/src/clock/S32K1xx/clock_S32K1xx.o
 .group         0x00000000        0x8 ./SDK/platform/drivers/src/clock/S32K1xx/clock_S32K1xx.o
 .group         0x00000000        0x8 ./SDK/platform/drivers/src/clock/S32K1xx/clock_S32K1xx.o
 .group         0x00000000        0x8 ./SDK/platform/drivers/src/clock/S32K1xx/clock_S32K1xx.o
 .text          0x00000000        0x0 ./SDK/platform/drivers/src/clock/S32K1xx/clock_S32K1xx.o
 .data          0x00000000        0x0 ./SDK/platform/drivers/src/clock/S32K1xx/clock_S32K1xx.o
 .bss           0x00000000        0x0 ./SDK/platform/drivers/src/clock/S32K1xx/clock_S32K1xx.o
 .text.CLOCK_SYS_TransitionToTmpSysClk
                0x00000000       0xec ./SDK/platform/drivers/src/clock/S32K1xx/clock_S32K1xx.o
 .text.CLOCK_SYS_GetCurrentSysClkConfig
                0x00000000       0x3c ./SDK/platform/drivers/src/clock/S32K1xx/clock_S32K1xx.o
 .text.CLOCK_DRV_EnablePeripheralClock
                0x00000000       0xe4 ./SDK/platform/drivers/src/clock/S32K1xx/clock_S32K1xx.o
 .text.CLOCK_DRV_DisablePeripheralClock
                0x00000000       0x84 ./SDK/platform/drivers/src/clock/S32K1xx/clock_S32K1xx.o
 .text.CLOCK_DRV_SetSystemClock
                0x00000000       0xe8 ./SDK/platform/drivers/src/clock/S32K1xx/clock_S32K1xx.o
 .text.CLOCK_DRV_SetSirc
                0x00000000       0xa0 ./SDK/platform/drivers/src/clock/S32K1xx/clock_S32K1xx.o
 .text.CLOCK_DRV_SetFirc
                0x00000000       0xa8 ./SDK/platform/drivers/src/clock/S32K1xx/clock_S32K1xx.o
 .text.CLOCK_DRV_SetSosc
                0x00000000       0xbc ./SDK/platform/drivers/src/clock/S32K1xx/clock_S32K1xx.o
 .text.CLOCK_DRV_SetSpll
                0x00000000       0x90 ./SDK/platform/drivers/src/clock/S32K1xx/clock_S32K1xx.o
 .text.CLOCK_DRV_SetLpo
                0x00000000       0x34 ./SDK/platform/drivers/src/clock/S32K1xx/clock_S32K1xx.o
 .rodata.soscRangeMappings.6369
                0x00000000        0x3 ./SDK/platform/drivers/src/clock/S32K1xx/clock_S32K1xx.o
 .rodata.sysClkSrcMappings.6335
                0x00000000        0x4 ./SDK/platform/drivers/src/clock/S32K1xx/clock_S32K1xx.o
 .rodata.sysClkDivMappings.6336
                0x00000000       0x11 ./SDK/platform/drivers/src/clock/S32K1xx/clock_S32K1xx.o
 .rodata.soscRefMappings.6370
                0x00000000        0x2 ./SDK/platform/drivers/src/clock/S32K1xx/clock_S32K1xx.o
 .rodata.sysClkDivMappings.6300
                0x00000000       0x10 ./SDK/platform/drivers/src/clock/S32K1xx/clock_S32K1xx.o
 .rodata.sysClkSrcMappings.6299
                0x00000000        0x7 ./SDK/platform/drivers/src/clock/S32K1xx/clock_S32K1xx.o
 .rodata.fircRangeMappings.6360
                0x00000000        0x4 ./SDK/platform/drivers/src/clock/S32K1xx/clock_S32K1xx.o
 .rodata.sircRangeMappings.6351
                0x00000000        0x2 ./SDK/platform/drivers/src/clock/S32K1xx/clock_S32K1xx.o
 .debug_macro   0x00000000       0x10 ./SDK/platform/drivers/src/clock/S32K1xx/clock_S32K1xx.o
 .debug_macro   0x00000000       0x73 ./SDK/platform/drivers/src/clock/S32K1xx/clock_S32K1xx.o
 .debug_macro   0x00000000       0x19 ./SDK/platform/drivers/src/clock/S32K1xx/clock_S32K1xx.o
 .debug_macro   0x00000000       0x22 ./SDK/platform/drivers/src/clock/S32K1xx/clock_S32K1xx.o
 .debug_macro   0x00000000       0x44 ./SDK/platform/drivers/src/clock/S32K1xx/clock_S32K1xx.o
 .debug_macro   0x00000000       0xe3 ./SDK/platform/drivers/src/clock/S32K1xx/clock_S32K1xx.o
 .debug_macro   0x00000000       0x22 ./SDK/platform/drivers/src/clock/S32K1xx/clock_S32K1xx.o
 .debug_macro   0x00000000      0x1df ./SDK/platform/drivers/src/clock/S32K1xx/clock_S32K1xx.o
 .debug_macro   0x00000000     0xdf8d ./SDK/platform/drivers/src/clock/S32K1xx/clock_S32K1xx.o
 .debug_macro   0x00000000      0x978 ./SDK/platform/drivers/src/clock/S32K1xx/clock_S32K1xx.o
 .debug_macro   0x00000000       0x22 ./SDK/platform/drivers/src/clock/S32K1xx/clock_S32K1xx.o
 .debug_macro   0x00000000      0x166 ./SDK/platform/drivers/src/clock/S32K1xx/clock_S32K1xx.o
 .debug_macro   0x00000000       0x10 ./SDK/platform/drivers/src/clock/S32K1xx/clock_S32K1xx.o
 .group         0x00000000        0x8 ./SDK/platform/drivers/src/adc/adc_driver.o
 .group         0x00000000        0x8 ./SDK/platform/drivers/src/adc/adc_driver.o
 .group         0x00000000        0x8 ./SDK/platform/drivers/src/adc/adc_driver.o
 .group         0x00000000        0x8 ./SDK/platform/drivers/src/adc/adc_driver.o
 .group         0x00000000        0x8 ./SDK/platform/drivers/src/adc/adc_driver.o
 .group         0x00000000        0x8 ./SDK/platform/drivers/src/adc/adc_driver.o
 .group         0x00000000        0x8 ./SDK/platform/drivers/src/adc/adc_driver.o
 .group         0x00000000        0x8 ./SDK/platform/drivers/src/adc/adc_driver.o
 .group         0x00000000        0x8 ./SDK/platform/drivers/src/adc/adc_driver.o
 .group         0x00000000        0x8 ./SDK/platform/drivers/src/adc/adc_driver.o
 .group         0x00000000        0x8 ./SDK/platform/drivers/src/adc/adc_driver.o
 .group         0x00000000        0x8 ./SDK/platform/drivers/src/adc/adc_driver.o
 .text          0x00000000        0x0 ./SDK/platform/drivers/src/adc/adc_driver.o
 .data          0x00000000        0x0 ./SDK/platform/drivers/src/adc/adc_driver.o
 .bss           0x00000000        0x0 ./SDK/platform/drivers/src/adc/adc_driver.o
 .text.ADC_DRV_InitConverterStruct
                0x00000000       0x1c ./SDK/platform/drivers/src/adc/adc_driver.o
 .text.ADC_DRV_GetConverterConfig
                0x00000000       0xe4 ./SDK/platform/drivers/src/adc/adc_driver.o
 .text.ADC_DRV_InitHwCompareStruct
                0x00000000       0x10 ./SDK/platform/drivers/src/adc/adc_driver.o
 .text.ADC_DRV_ConfigHwCompare
                0x00000000       0x60 ./SDK/platform/drivers/src/adc/adc_driver.o
 .text.ADC_DRV_GetHwCompareConfig
                0x00000000       0x38 ./SDK/platform/drivers/src/adc/adc_driver.o
 .text.ADC_DRV_InitHwAverageStruct
                0x00000000        0x8 ./SDK/platform/drivers/src/adc/adc_driver.o
 .text.ADC_DRV_ConfigHwAverage
                0x00000000       0x38 ./SDK/platform/drivers/src/adc/adc_driver.o
 .text.ADC_DRV_GetHwAverageConfig
                0x00000000       0x20 ./SDK/platform/drivers/src/adc/adc_driver.o
 .text.ADC_DRV_InitChanStruct
                0x00000000        0xc ./SDK/platform/drivers/src/adc/adc_driver.o
 .text.ADC_DRV_GetChanConfig
                0x00000000       0x20 ./SDK/platform/drivers/src/adc/adc_driver.o
 .text.ADC_DRV_SetSwPretrigger
                0x00000000       0x54 ./SDK/platform/drivers/src/adc/adc_driver.o
 .text.ADC_DRV_Reset
                0x00000000       0x88 ./SDK/platform/drivers/src/adc/adc_driver.o
 .text.ADC_DRV_WaitConvDone
                0x00000000       0x18 ./SDK/platform/drivers/src/adc/adc_driver.o
 .text.ADC_DRV_GetConvCompleteFlag
                0x00000000       0x14 ./SDK/platform/drivers/src/adc/adc_driver.o
 .text.ADC_DRV_AutoCalibration
                0x00000000       0xb0 ./SDK/platform/drivers/src/adc/adc_driver.o
 .text.ADC_DRV_InitUserCalibrationStruct
                0x00000000        0xc ./SDK/platform/drivers/src/adc/adc_driver.o
 .text.ADC_DRV_ConfigUserCalibration
                0x00000000       0x4c ./SDK/platform/drivers/src/adc/adc_driver.o
 .text.ADC_DRV_GetUserCalibration
                0x00000000       0x20 ./SDK/platform/drivers/src/adc/adc_driver.o
 .text.ADC_DRV_GetInterruptNumber
                0x00000000        0xc ./SDK/platform/drivers/src/adc/adc_driver.o
 .text.ADC_DRV_ClearLatchedTriggers
                0x00000000       0x24 ./SDK/platform/drivers/src/adc/adc_driver.o
 .text.ADC_DRV_ClearTriggerErrors
                0x00000000       0x18 ./SDK/platform/drivers/src/adc/adc_driver.o
 .text.ADC_DRV_GetTriggerErrorFlags
                0x00000000       0x14 ./SDK/platform/drivers/src/adc/adc_driver.o
 .rodata.adcIrqId.5456
                0x00000000        0x2 ./SDK/platform/drivers/src/adc/adc_driver.o
 .debug_macro   0x00000000      0x166 ./SDK/platform/drivers/src/adc/adc_driver.o
 .debug_macro   0x00000000       0x22 ./SDK/platform/drivers/src/adc/adc_driver.o
 .debug_macro   0x00000000       0x44 ./SDK/platform/drivers/src/adc/adc_driver.o
 .debug_macro   0x00000000       0xe3 ./SDK/platform/drivers/src/adc/adc_driver.o
 .debug_macro   0x00000000       0x22 ./SDK/platform/drivers/src/adc/adc_driver.o
 .debug_macro   0x00000000      0x1df ./SDK/platform/drivers/src/adc/adc_driver.o
 .debug_macro   0x00000000       0x22 ./SDK/platform/drivers/src/adc/adc_driver.o
 .debug_macro   0x00000000       0x10 ./SDK/platform/drivers/src/adc/adc_driver.o
 .debug_macro   0x00000000       0x73 ./SDK/platform/drivers/src/adc/adc_driver.o
 .debug_macro   0x00000000     0xdfa2 ./SDK/platform/drivers/src/adc/adc_driver.o
 .debug_macro   0x00000000      0x978 ./SDK/platform/drivers/src/adc/adc_driver.o
 .debug_macro   0x00000000       0x10 ./SDK/platform/drivers/src/adc/adc_driver.o
 .group         0x00000000        0x8 ./SDK/platform/devices/startup.o
 .group         0x00000000        0x8 ./SDK/platform/devices/startup.o
 .group         0x00000000        0x8 ./SDK/platform/devices/startup.o
 .group         0x00000000        0x8 ./SDK/platform/devices/startup.o
 .group         0x00000000        0x8 ./SDK/platform/devices/startup.o
 .group         0x00000000        0x8 ./SDK/platform/devices/startup.o
 .group         0x00000000        0x8 ./SDK/platform/devices/startup.o
 .group         0x00000000        0x8 ./SDK/platform/devices/startup.o
 .group         0x00000000        0x8 ./SDK/platform/devices/startup.o
 .group         0x00000000        0x8 ./SDK/platform/devices/startup.o
 .group         0x00000000        0x8 ./SDK/platform/devices/startup.o
 .text          0x00000000        0x0 ./SDK/platform/devices/startup.o
 .data          0x00000000        0x0 ./SDK/platform/devices/startup.o
 .bss           0x00000000        0x0 ./SDK/platform/devices/startup.o
 .debug_macro   0x00000000       0x10 ./SDK/platform/devices/startup.o
 .debug_macro   0x00000000       0x73 ./SDK/platform/devices/startup.o
 .debug_macro   0x00000000       0x19 ./SDK/platform/devices/startup.o
 .debug_macro   0x00000000       0x22 ./SDK/platform/devices/startup.o
 .debug_macro   0x00000000       0x44 ./SDK/platform/devices/startup.o
 .debug_macro   0x00000000       0xe3 ./SDK/platform/devices/startup.o
 .debug_macro   0x00000000       0x22 ./SDK/platform/devices/startup.o
 .debug_macro   0x00000000      0x1df ./SDK/platform/devices/startup.o
 .debug_macro   0x00000000     0xdf8d ./SDK/platform/devices/startup.o
 .debug_macro   0x00000000      0x978 ./SDK/platform/devices/startup.o
 .debug_macro   0x00000000       0x22 ./SDK/platform/devices/startup.o
 .group         0x00000000        0x8 ./SDK/platform/devices/S32K144/startup/system_S32K144.o
 .group         0x00000000        0x8 ./SDK/platform/devices/S32K144/startup/system_S32K144.o
 .group         0x00000000        0x8 ./SDK/platform/devices/S32K144/startup/system_S32K144.o
 .group         0x00000000        0x8 ./SDK/platform/devices/S32K144/startup/system_S32K144.o
 .group         0x00000000        0x8 ./SDK/platform/devices/S32K144/startup/system_S32K144.o
 .group         0x00000000        0x8 ./SDK/platform/devices/S32K144/startup/system_S32K144.o
 .group         0x00000000        0x8 ./SDK/platform/devices/S32K144/startup/system_S32K144.o
 .group         0x00000000        0x8 ./SDK/platform/devices/S32K144/startup/system_S32K144.o
 .group         0x00000000        0x8 ./SDK/platform/devices/S32K144/startup/system_S32K144.o
 .group         0x00000000        0x8 ./SDK/platform/devices/S32K144/startup/system_S32K144.o
 .group         0x00000000        0x8 ./SDK/platform/devices/S32K144/startup/system_S32K144.o
 .group         0x00000000        0x8 ./SDK/platform/devices/S32K144/startup/system_S32K144.o
 .text          0x00000000        0x0 ./SDK/platform/devices/S32K144/startup/system_S32K144.o
 .data          0x00000000        0x0 ./SDK/platform/devices/S32K144/startup/system_S32K144.o
 .bss           0x00000000        0x0 ./SDK/platform/devices/S32K144/startup/system_S32K144.o
 .text.SystemCoreClockUpdate
                0x00000000       0x94 ./SDK/platform/devices/S32K144/startup/system_S32K144.o
 .text.SystemSoftwareReset
                0x00000000       0x18 ./SDK/platform/devices/S32K144/startup/system_S32K144.o
 .rodata.fircFreq.4924
                0x00000000       0x10 ./SDK/platform/devices/S32K144/startup/system_S32K144.o
 .data.SystemCoreClock
                0x00000000        0x4 ./SDK/platform/devices/S32K144/startup/system_S32K144.o
 .debug_macro   0x00000000       0x10 ./SDK/platform/devices/S32K144/startup/system_S32K144.o
 .debug_macro   0x00000000       0x73 ./SDK/platform/devices/S32K144/startup/system_S32K144.o
 .debug_macro   0x00000000       0x19 ./SDK/platform/devices/S32K144/startup/system_S32K144.o
 .debug_macro   0x00000000       0x22 ./SDK/platform/devices/S32K144/startup/system_S32K144.o
 .debug_macro   0x00000000       0x44 ./SDK/platform/devices/S32K144/startup/system_S32K144.o
 .debug_macro   0x00000000       0xe3 ./SDK/platform/devices/S32K144/startup/system_S32K144.o
 .debug_macro   0x00000000       0x22 ./SDK/platform/devices/S32K144/startup/system_S32K144.o
 .debug_macro   0x00000000      0x1df ./SDK/platform/devices/S32K144/startup/system_S32K144.o
 .debug_macro   0x00000000     0xdf8d ./SDK/platform/devices/S32K144/startup/system_S32K144.o
 .debug_macro   0x00000000      0x978 ./SDK/platform/devices/S32K144/startup/system_S32K144.o
 .debug_macro   0x00000000       0x22 ./SDK/platform/devices/S32K144/startup/system_S32K144.o
 .debug_macro   0x00000000       0x22 ./SDK/platform/devices/S32K144/startup/system_S32K144.o
 .data          0x00000000        0x0 ./Project_Settings/Startup_Code/startup_S32K144.o
 .bss           0x00000000        0x0 ./Project_Settings/Startup_Code/startup_S32K144.o
 .FlashConfig   0x00000000       0x10 ./Project_Settings/Startup_Code/startup_S32K144.o
 .group         0x00000000        0x8 ./Generated_Code/pin_mux.o
 .group         0x00000000        0x8 ./Generated_Code/pin_mux.o
 .group         0x00000000        0x8 ./Generated_Code/pin_mux.o
 .group         0x00000000        0x8 ./Generated_Code/pin_mux.o
 .group         0x00000000        0x8 ./Generated_Code/pin_mux.o
 .group         0x00000000        0x8 ./Generated_Code/pin_mux.o
 .group         0x00000000        0x8 ./Generated_Code/pin_mux.o
 .group         0x00000000        0x8 ./Generated_Code/pin_mux.o
 .group         0x00000000        0x8 ./Generated_Code/pin_mux.o
 .group         0x00000000        0x8 ./Generated_Code/pin_mux.o
 .group         0x00000000        0x8 ./Generated_Code/pin_mux.o
 .group         0x00000000        0x8 ./Generated_Code/pin_mux.o
 .text          0x00000000        0x0 ./Generated_Code/pin_mux.o
 .data          0x00000000        0x0 ./Generated_Code/pin_mux.o
 .bss           0x00000000        0x0 ./Generated_Code/pin_mux.o
 .debug_macro   0x00000000       0x10 ./Generated_Code/pin_mux.o
 .debug_macro   0x00000000       0x73 ./Generated_Code/pin_mux.o
 .debug_macro   0x00000000       0x19 ./Generated_Code/pin_mux.o
 .debug_macro   0x00000000       0x22 ./Generated_Code/pin_mux.o
 .debug_macro   0x00000000       0x44 ./Generated_Code/pin_mux.o
 .debug_macro   0x00000000       0xe3 ./Generated_Code/pin_mux.o
 .debug_macro   0x00000000       0x22 ./Generated_Code/pin_mux.o
 .debug_macro   0x00000000      0x1df ./Generated_Code/pin_mux.o
 .debug_macro   0x00000000     0xdf8d ./Generated_Code/pin_mux.o
 .debug_macro   0x00000000      0x978 ./Generated_Code/pin_mux.o
 .debug_macro   0x00000000       0x22 ./Generated_Code/pin_mux.o
 .debug_macro   0x00000000      0x166 ./Generated_Code/pin_mux.o
 .group         0x00000000        0x8 ./Generated_Code/pdly1.o
 .group         0x00000000        0x8 ./Generated_Code/pdly1.o
 .group         0x00000000        0x8 ./Generated_Code/pdly1.o
 .group         0x00000000        0x8 ./Generated_Code/pdly1.o
 .group         0x00000000        0x8 ./Generated_Code/pdly1.o
 .group         0x00000000        0x8 ./Generated_Code/pdly1.o
 .group         0x00000000        0x8 ./Generated_Code/pdly1.o
 .group         0x00000000        0x8 ./Generated_Code/pdly1.o
 .group         0x00000000        0x8 ./Generated_Code/pdly1.o
 .group         0x00000000        0x8 ./Generated_Code/pdly1.o
 .group         0x00000000        0x8 ./Generated_Code/pdly1.o
 .group         0x00000000        0x8 ./Generated_Code/pdly1.o
 .group         0x00000000        0x8 ./Generated_Code/pdly1.o
 .text          0x00000000        0x0 ./Generated_Code/pdly1.o
 .data          0x00000000        0x0 ./Generated_Code/pdly1.o
 .bss           0x00000000        0x0 ./Generated_Code/pdly1.o
 .debug_macro   0x00000000       0x10 ./Generated_Code/pdly1.o
 .debug_macro   0x00000000       0x73 ./Generated_Code/pdly1.o
 .debug_macro   0x00000000       0x19 ./Generated_Code/pdly1.o
 .debug_macro   0x00000000       0x22 ./Generated_Code/pdly1.o
 .debug_macro   0x00000000       0x44 ./Generated_Code/pdly1.o
 .debug_macro   0x00000000       0xe3 ./Generated_Code/pdly1.o
 .debug_macro   0x00000000       0x22 ./Generated_Code/pdly1.o
 .debug_macro   0x00000000      0x1df ./Generated_Code/pdly1.o
 .debug_macro   0x00000000     0xdf8d ./Generated_Code/pdly1.o
 .debug_macro   0x00000000      0x978 ./Generated_Code/pdly1.o
 .debug_macro   0x00000000       0x22 ./Generated_Code/pdly1.o
 .debug_macro   0x00000000       0x10 ./Generated_Code/pdly1.o
 .debug_macro   0x00000000       0x22 ./Generated_Code/pdly1.o
 .group         0x00000000        0x8 ./Generated_Code/clockMan1.o
 .group         0x00000000        0x8 ./Generated_Code/clockMan1.o
 .group         0x00000000        0x8 ./Generated_Code/clockMan1.o
 .group         0x00000000        0x8 ./Generated_Code/clockMan1.o
 .group         0x00000000        0x8 ./Generated_Code/clockMan1.o
 .group         0x00000000        0x8 ./Generated_Code/clockMan1.o
 .group         0x00000000        0x8 ./Generated_Code/clockMan1.o
 .group         0x00000000        0x8 ./Generated_Code/clockMan1.o
 .group         0x00000000        0x8 ./Generated_Code/clockMan1.o
 .group         0x00000000        0x8 ./Generated_Code/clockMan1.o
 .group         0x00000000        0x8 ./Generated_Code/clockMan1.o
 .group         0x00000000        0x8 ./Generated_Code/clockMan1.o
 .group         0x00000000        0x8 ./Generated_Code/clockMan1.o
 .group         0x00000000        0x8 ./Generated_Code/clockMan1.o
 .text          0x00000000        0x0 ./Generated_Code/clockMan1.o
 .data          0x00000000        0x0 ./Generated_Code/clockMan1.o
 .bss           0x00000000        0x0 ./Generated_Code/clockMan1.o
 .debug_macro   0x00000000       0x22 ./Generated_Code/clockMan1.o
 .debug_macro   0x00000000       0x22 ./Generated_Code/clockMan1.o
 .debug_macro   0x00000000       0x44 ./Generated_Code/clockMan1.o
 .debug_macro   0x00000000       0xe3 ./Generated_Code/clockMan1.o
 .debug_macro   0x00000000       0x22 ./Generated_Code/clockMan1.o
 .debug_macro   0x00000000      0x1df ./Generated_Code/clockMan1.o
 .debug_macro   0x00000000       0x10 ./Generated_Code/clockMan1.o
 .debug_macro   0x00000000       0x73 ./Generated_Code/clockMan1.o
 .debug_macro   0x00000000     0xdfa2 ./Generated_Code/clockMan1.o
 .debug_macro   0x00000000      0x978 ./Generated_Code/clockMan1.o
 .debug_macro   0x00000000       0x10 ./Generated_Code/clockMan1.o
 .debug_macro   0x00000000       0x10 ./Generated_Code/clockMan1.o
 .debug_macro   0x00000000       0x22 ./Generated_Code/clockMan1.o
 .group         0x00000000        0x8 ./Generated_Code/adConv1.o
 .group         0x00000000        0x8 ./Generated_Code/adConv1.o
 .group         0x00000000        0x8 ./Generated_Code/adConv1.o
 .group         0x00000000        0x8 ./Generated_Code/adConv1.o
 .group         0x00000000        0x8 ./Generated_Code/adConv1.o
 .group         0x00000000        0x8 ./Generated_Code/adConv1.o
 .group         0x00000000        0x8 ./Generated_Code/adConv1.o
 .group         0x00000000        0x8 ./Generated_Code/adConv1.o
 .group         0x00000000        0x8 ./Generated_Code/adConv1.o
 .group         0x00000000        0x8 ./Generated_Code/adConv1.o
 .group         0x00000000        0x8 ./Generated_Code/adConv1.o
 .group         0x00000000        0x8 ./Generated_Code/adConv1.o
 .group         0x00000000        0x8 ./Generated_Code/adConv1.o
 .text          0x00000000        0x0 ./Generated_Code/adConv1.o
 .data          0x00000000        0x0 ./Generated_Code/adConv1.o
 .bss           0x00000000        0x0 ./Generated_Code/adConv1.o
 .rodata.adConv1_HwAvgConfig0
                0x00000000        0x2 ./Generated_Code/adConv1.o
 .rodata.adConv1_HwCompConfig0
                0x00000000        0x8 ./Generated_Code/adConv1.o
 .debug_macro   0x00000000       0x10 ./Generated_Code/adConv1.o
 .debug_macro   0x00000000       0x73 ./Generated_Code/adConv1.o
 .debug_macro   0x00000000       0x19 ./Generated_Code/adConv1.o
 .debug_macro   0x00000000       0x22 ./Generated_Code/adConv1.o
 .debug_macro   0x00000000       0x44 ./Generated_Code/adConv1.o
 .debug_macro   0x00000000       0xe3 ./Generated_Code/adConv1.o
 .debug_macro   0x00000000       0x22 ./Generated_Code/adConv1.o
 .debug_macro   0x00000000      0x1df ./Generated_Code/adConv1.o
 .debug_macro   0x00000000     0xdf8d ./Generated_Code/adConv1.o
 .debug_macro   0x00000000      0x978 ./Generated_Code/adConv1.o
 .debug_macro   0x00000000       0x22 ./Generated_Code/adConv1.o
 .debug_macro   0x00000000       0x10 ./Generated_Code/adConv1.o
 .debug_macro   0x00000000       0x22 ./Generated_Code/adConv1.o
 .group         0x00000000        0x8 ./Generated_Code/Cpu.o
 .group         0x00000000        0x8 ./Generated_Code/Cpu.o
 .group         0x00000000        0x8 ./Generated_Code/Cpu.o
 .group         0x00000000        0x8 ./Generated_Code/Cpu.o
 .group         0x00000000        0x8 ./Generated_Code/Cpu.o
 .group         0x00000000        0x8 ./Generated_Code/Cpu.o
 .group         0x00000000        0x8 ./Generated_Code/Cpu.o
 .group         0x00000000        0x8 ./Generated_Code/Cpu.o
 .group         0x00000000        0x8 ./Generated_Code/Cpu.o
 .group         0x00000000        0x8 ./Generated_Code/Cpu.o
 .group         0x00000000        0x8 ./Generated_Code/Cpu.o
 .group         0x00000000        0x8 ./Generated_Code/Cpu.o
 .group         0x00000000        0x8 ./Generated_Code/Cpu.o
 .text          0x00000000        0x0 ./Generated_Code/Cpu.o
 .data          0x00000000        0x0 ./Generated_Code/Cpu.o
 .bss           0x00000000        0x0 ./Generated_Code/Cpu.o
 .debug_info    0x00000000       0x76 ./Generated_Code/Cpu.o
 .debug_abbrev  0x00000000       0x29 ./Generated_Code/Cpu.o
 .debug_aranges
                0x00000000       0x18 ./Generated_Code/Cpu.o
 .debug_macro   0x00000000      0xa42 ./Generated_Code/Cpu.o
 .debug_macro   0x00000000       0x10 ./Generated_Code/Cpu.o
 .debug_macro   0x00000000       0x73 ./Generated_Code/Cpu.o
 .debug_macro   0x00000000       0x19 ./Generated_Code/Cpu.o
 .debug_macro   0x00000000       0x22 ./Generated_Code/Cpu.o
 .debug_macro   0x00000000       0x44 ./Generated_Code/Cpu.o
 .debug_macro   0x00000000       0xe3 ./Generated_Code/Cpu.o
 .debug_macro   0x00000000       0x22 ./Generated_Code/Cpu.o
 .debug_macro   0x00000000      0x1df ./Generated_Code/Cpu.o
 .debug_macro   0x00000000     0xdf8d ./Generated_Code/Cpu.o
 .debug_macro   0x00000000      0x978 ./Generated_Code/Cpu.o
 .debug_macro   0x00000000       0x22 ./Generated_Code/Cpu.o
 .debug_macro   0x00000000       0x10 ./Generated_Code/Cpu.o
 .debug_macro   0x00000000       0x22 ./Generated_Code/Cpu.o
 .debug_line    0x00000000      0x4ac ./Generated_Code/Cpu.o
 .debug_str     0x00000000    0x61548 ./Generated_Code/Cpu.o
 .comment       0x00000000       0x71 ./Generated_Code/Cpu.o
 .ARM.attributes
                0x00000000       0x39 ./Generated_Code/Cpu.o
 .text          0x00000000        0x0 C:/NXP/S32DS_ARM_v2.0/Cross_Tools/gcc-arm-none-eabi-4_9/arm-none-eabi/newlib/lib/armv7e-m/fpu\libc_nano.a(lib_a-exit.o)
 .data          0x00000000        0x0 C:/NXP/S32DS_ARM_v2.0/Cross_Tools/gcc-arm-none-eabi-4_9/arm-none-eabi/newlib/lib/armv7e-m/fpu\libc_nano.a(lib_a-exit.o)
 .bss           0x00000000        0x0 C:/NXP/S32DS_ARM_v2.0/Cross_Tools/gcc-arm-none-eabi-4_9/arm-none-eabi/newlib/lib/armv7e-m/fpu\libc_nano.a(lib_a-exit.o)
 .text.exit     0x00000000       0x28 C:/NXP/S32DS_ARM_v2.0/Cross_Tools/gcc-arm-none-eabi-4_9/arm-none-eabi/newlib/lib/armv7e-m/fpu\libc_nano.a(lib_a-exit.o)
 .debug_frame   0x00000000       0x28 C:/NXP/S32DS_ARM_v2.0/Cross_Tools/gcc-arm-none-eabi-4_9/arm-none-eabi/newlib/lib/armv7e-m/fpu\libc_nano.a(lib_a-exit.o)
 .ARM.attributes
                0x00000000       0x34 C:/NXP/S32DS_ARM_v2.0/Cross_Tools/gcc-arm-none-eabi-4_9/arm-none-eabi/newlib/lib/armv7e-m/fpu\libc_nano.a(lib_a-exit.o)
 .text          0x00000000        0x0 C:/NXP/S32DS_ARM_v2.0/Cross_Tools/gcc-arm-none-eabi-4_9/arm-none-eabi/newlib/lib/armv7e-m/fpu\libc_nano.a(lib_a-impure.o)
 .data          0x00000000        0x0 C:/NXP/S32DS_ARM_v2.0/Cross_Tools/gcc-arm-none-eabi-4_9/arm-none-eabi/newlib/lib/armv7e-m/fpu\libc_nano.a(lib_a-impure.o)
 .bss           0x00000000        0x0 C:/NXP/S32DS_ARM_v2.0/Cross_Tools/gcc-arm-none-eabi-4_9/arm-none-eabi/newlib/lib/armv7e-m/fpu\libc_nano.a(lib_a-impure.o)
 .data.impure_data
                0x00000000       0x60 C:/NXP/S32DS_ARM_v2.0/Cross_Tools/gcc-arm-none-eabi-4_9/arm-none-eabi/newlib/lib/armv7e-m/fpu\libc_nano.a(lib_a-impure.o)
 .data._impure_ptr
                0x00000000        0x4 C:/NXP/S32DS_ARM_v2.0/Cross_Tools/gcc-arm-none-eabi-4_9/arm-none-eabi/newlib/lib/armv7e-m/fpu\libc_nano.a(lib_a-impure.o)
 .rodata.str1.1
                0x00000000        0x2 C:/NXP/S32DS_ARM_v2.0/Cross_Tools/gcc-arm-none-eabi-4_9/arm-none-eabi/newlib/lib/armv7e-m/fpu\libc_nano.a(lib_a-impure.o)
 .rodata._global_impure_ptr
                0x00000000        0x4 C:/NXP/S32DS_ARM_v2.0/Cross_Tools/gcc-arm-none-eabi-4_9/arm-none-eabi/newlib/lib/armv7e-m/fpu\libc_nano.a(lib_a-impure.o)
 .ARM.attributes
                0x00000000       0x34 C:/NXP/S32DS_ARM_v2.0/Cross_Tools/gcc-arm-none-eabi-4_9/arm-none-eabi/newlib/lib/armv7e-m/fpu\libc_nano.a(lib_a-impure.o)
 .text          0x00000000        0x0 C:/NXP/S32DS_ARM_v2.0/Cross_Tools/gcc-arm-none-eabi-4_9/arm-none-eabi/newlib/lib/armv7e-m/fpu\libc_nano.a(lib_a-init.o)
 .data          0x00000000        0x0 C:/NXP/S32DS_ARM_v2.0/Cross_Tools/gcc-arm-none-eabi-4_9/arm-none-eabi/newlib/lib/armv7e-m/fpu\libc_nano.a(lib_a-init.o)
 .bss           0x00000000        0x0 C:/NXP/S32DS_ARM_v2.0/Cross_Tools/gcc-arm-none-eabi-4_9/arm-none-eabi/newlib/lib/armv7e-m/fpu\libc_nano.a(lib_a-init.o)
 .text.__libc_init_array
                0x00000000       0x4c C:/NXP/S32DS_ARM_v2.0/Cross_Tools/gcc-arm-none-eabi-4_9/arm-none-eabi/newlib/lib/armv7e-m/fpu\libc_nano.a(lib_a-init.o)
 .debug_frame   0x00000000       0x2c C:/NXP/S32DS_ARM_v2.0/Cross_Tools/gcc-arm-none-eabi-4_9/arm-none-eabi/newlib/lib/armv7e-m/fpu\libc_nano.a(lib_a-init.o)
 .ARM.attributes
                0x00000000       0x34 C:/NXP/S32DS_ARM_v2.0/Cross_Tools/gcc-arm-none-eabi-4_9/arm-none-eabi/newlib/lib/armv7e-m/fpu\libc_nano.a(lib_a-init.o)
 .text          0x00000000        0x0 C:/NXP/S32DS_ARM_v2.0/Cross_Tools/gcc-arm-none-eabi-4_9/arm-none-eabi/newlib/lib/armv7e-m/fpu\libc_nano.a(lib_a-memset.o)
 .data          0x00000000        0x0 C:/NXP/S32DS_ARM_v2.0/Cross_Tools/gcc-arm-none-eabi-4_9/arm-none-eabi/newlib/lib/armv7e-m/fpu\libc_nano.a(lib_a-memset.o)
 .bss           0x00000000        0x0 C:/NXP/S32DS_ARM_v2.0/Cross_Tools/gcc-arm-none-eabi-4_9/arm-none-eabi/newlib/lib/armv7e-m/fpu\libc_nano.a(lib_a-memset.o)
 .text.memset   0x00000000       0x10 C:/NXP/S32DS_ARM_v2.0/Cross_Tools/gcc-arm-none-eabi-4_9/arm-none-eabi/newlib/lib/armv7e-m/fpu\libc_nano.a(lib_a-memset.o)
 .debug_frame   0x00000000       0x20 C:/NXP/S32DS_ARM_v2.0/Cross_Tools/gcc-arm-none-eabi-4_9/arm-none-eabi/newlib/lib/armv7e-m/fpu\libc_nano.a(lib_a-memset.o)
 .ARM.attributes
                0x00000000       0x34 C:/NXP/S32DS_ARM_v2.0/Cross_Tools/gcc-arm-none-eabi-4_9/arm-none-eabi/newlib/lib/armv7e-m/fpu\libc_nano.a(lib_a-memset.o)
 .text          0x00000000        0x0 C:/NXP/S32DS_ARM_v2.0/Cross_Tools/gcc-arm-none-eabi-4_9/arm-none-eabi/newlib/lib/armv7e-m/fpu\librdimon_nano.a(rdimon-_exit.o)
 .data          0x00000000        0x0 C:/NXP/S32DS_ARM_v2.0/Cross_Tools/gcc-arm-none-eabi-4_9/arm-none-eabi/newlib/lib/armv7e-m/fpu\librdimon_nano.a(rdimon-_exit.o)
 .bss           0x00000000        0x0 C:/NXP/S32DS_ARM_v2.0/Cross_Tools/gcc-arm-none-eabi-4_9/arm-none-eabi/newlib/lib/armv7e-m/fpu\librdimon_nano.a(rdimon-_exit.o)
 .text._exit    0x00000000        0x8 C:/NXP/S32DS_ARM_v2.0/Cross_Tools/gcc-arm-none-eabi-4_9/arm-none-eabi/newlib/lib/armv7e-m/fpu\librdimon_nano.a(rdimon-_exit.o)
 .debug_frame   0x00000000       0x20 C:/NXP/S32DS_ARM_v2.0/Cross_Tools/gcc-arm-none-eabi-4_9/arm-none-eabi/newlib/lib/armv7e-m/fpu\librdimon_nano.a(rdimon-_exit.o)
 .ARM.attributes
                0x00000000       0x34 C:/NXP/S32DS_ARM_v2.0/Cross_Tools/gcc-arm-none-eabi-4_9/arm-none-eabi/newlib/lib/armv7e-m/fpu\librdimon_nano.a(rdimon-_exit.o)
 .text          0x00000000        0x0 C:/NXP/S32DS_ARM_v2.0/Cross_Tools/gcc-arm-none-eabi-4_9/arm-none-eabi/newlib/lib/armv7e-m/fpu\librdimon_nano.a(rdimon-_kill.o)
 .data          0x00000000        0x0 C:/NXP/S32DS_ARM_v2.0/Cross_Tools/gcc-arm-none-eabi-4_9/arm-none-eabi/newlib/lib/armv7e-m/fpu\librdimon_nano.a(rdimon-_kill.o)
 .bss           0x00000000        0x0 C:/NXP/S32DS_ARM_v2.0/Cross_Tools/gcc-arm-none-eabi-4_9/arm-none-eabi/newlib/lib/armv7e-m/fpu\librdimon_nano.a(rdimon-_kill.o)
 .text._kill    0x00000000       0x20 C:/NXP/S32DS_ARM_v2.0/Cross_Tools/gcc-arm-none-eabi-4_9/arm-none-eabi/newlib/lib/armv7e-m/fpu\librdimon_nano.a(rdimon-_kill.o)
 .debug_frame   0x00000000       0x2c C:/NXP/S32DS_ARM_v2.0/Cross_Tools/gcc-arm-none-eabi-4_9/arm-none-eabi/newlib/lib/armv7e-m/fpu\librdimon_nano.a(rdimon-_kill.o)
 .ARM.attributes
                0x00000000       0x34 C:/NXP/S32DS_ARM_v2.0/Cross_Tools/gcc-arm-none-eabi-4_9/arm-none-eabi/newlib/lib/armv7e-m/fpu\librdimon_nano.a(rdimon-_kill.o)
 .text          0x00000000        0x0 c:/nxp/s32ds_arm_v2.0/cross_tools/gcc-arm-none-eabi-4_9/bin/../lib/gcc/arm-none-eabi/4.9.3/armv7e-m/fpu/crtend.o
 .data          0x00000000        0x0 c:/nxp/s32ds_arm_v2.0/cross_tools/gcc-arm-none-eabi-4_9/bin/../lib/gcc/arm-none-eabi/4.9.3/armv7e-m/fpu/crtend.o
 .bss           0x00000000        0x0 c:/nxp/s32ds_arm_v2.0/cross_tools/gcc-arm-none-eabi-4_9/bin/../lib/gcc/arm-none-eabi/4.9.3/armv7e-m/fpu/crtend.o
 .eh_frame      0x00000000        0x4 c:/nxp/s32ds_arm_v2.0/cross_tools/gcc-arm-none-eabi-4_9/bin/../lib/gcc/arm-none-eabi/4.9.3/armv7e-m/fpu/crtend.o
 .text          0x00000000        0x0 c:/nxp/s32ds_arm_v2.0/cross_tools/gcc-arm-none-eabi-4_9/bin/../lib/gcc/arm-none-eabi/4.9.3/armv7e-m/fpu/crtn.o
 .data          0x00000000        0x0 c:/nxp/s32ds_arm_v2.0/cross_tools/gcc-arm-none-eabi-4_9/bin/../lib/gcc/arm-none-eabi/4.9.3/armv7e-m/fpu/crtn.o
 .bss           0x00000000        0x0 c:/nxp/s32ds_arm_v2.0/cross_tools/gcc-arm-none-eabi-4_9/bin/../lib/gcc/arm-none-eabi/4.9.3/armv7e-m/fpu/crtn.o

Memory Configuration

Name             Origin             Length             Attributes
m_interrupts     0x1fff8000         0x00000400         xr
m_text           0x1fff8400         0x00007c00         xr
m_data           0x20000000         0x00007000         rw
*default*        0x00000000         0xffffffff

Linker script and memory map

LOAD c:/nxp/s32ds_arm_v2.0/cross_tools/gcc-arm-none-eabi-4_9/bin/../lib/gcc/arm-none-eabi/4.9.3/armv7e-m/fpu/crti.o
LOAD c:/nxp/s32ds_arm_v2.0/cross_tools/gcc-arm-none-eabi-4_9/bin/../lib/gcc/arm-none-eabi/4.9.3/armv7e-m/fpu/crtbegin.o
LOAD C:/NXP/S32DS_ARM_v2.0/Cross_Tools/gcc-arm-none-eabi-4_9/arm-none-eabi/newlib/lib/armv7e-m/fpu/crt0.o
LOAD ./Sources/main.o
LOAD ./Sources/helper_functions.o
LOAD ./SDK/platform/drivers/src/pins/pins_port_hw_access.o
LOAD ./SDK/platform/drivers/src/pins/pins_driver.o
LOAD ./SDK/platform/drivers/src/pdb/pdb_hw_access.o
LOAD ./SDK/platform/drivers/src/pdb/pdb_driver.o
LOAD ./SDK/platform/drivers/src/interrupt/interrupt_manager.o
LOAD ./SDK/platform/drivers/src/clock/clock_manager.o
LOAD ./SDK/platform/drivers/src/clock/S32K1xx/clock_S32K1xx.o
LOAD ./SDK/platform/drivers/src/adc/adc_driver.o
LOAD ./SDK/platform/devices/startup.o
LOAD ./SDK/platform/devices/S32K144/startup/system_S32K144.o
LOAD ./Project_Settings/Startup_Code/startup_S32K144.o
LOAD ./Generated_Code/pin_mux.o
LOAD ./Generated_Code/pdly1.o
LOAD ./Generated_Code/clockMan1.o
LOAD ./Generated_Code/adConv1.o
LOAD ./Generated_Code/Cpu.o
LOAD C:/NXP/S32DS_ARM_v2.0/Cross_Tools/gcc-arm-none-eabi-4_9/arm-none-eabi/newlib/lib/armv7e-m/fpu\libc_nano.a
LOAD c:/nxp/s32ds_arm_v2.0/cross_tools/gcc-arm-none-eabi-4_9/bin/../lib/gcc/arm-none-eabi/4.9.3/armv7e-m/fpu\libgcc.a
LOAD C:/NXP/S32DS_ARM_v2.0/Cross_Tools/gcc-arm-none-eabi-4_9/arm-none-eabi/newlib/lib/armv7e-m/fpu\libm.a
LOAD C:/NXP/S32DS_ARM_v2.0/Cross_Tools/gcc-arm-none-eabi-4_9/arm-none-eabi/newlib/lib/armv7e-m/fpu\librdimon_nano.a
START GROUP
LOAD c:/nxp/s32ds_arm_v2.0/cross_tools/gcc-arm-none-eabi-4_9/bin/../lib/gcc/arm-none-eabi/4.9.3/armv7e-m/fpu\libgcc.a
LOAD C:/NXP/S32DS_ARM_v2.0/Cross_Tools/gcc-arm-none-eabi-4_9/arm-none-eabi/newlib/lib/armv7e-m/fpu\libc_nano.a
END GROUP
START GROUP
LOAD c:/nxp/s32ds_arm_v2.0/cross_tools/gcc-arm-none-eabi-4_9/bin/../lib/gcc/arm-none-eabi/4.9.3/armv7e-m/fpu\libgcc.a
LOAD C:/NXP/S32DS_ARM_v2.0/Cross_Tools/gcc-arm-none-eabi-4_9/arm-none-eabi/newlib/lib/armv7e-m/fpu\libc_nano.a
LOAD C:/NXP/S32DS_ARM_v2.0/Cross_Tools/gcc-arm-none-eabi-4_9/arm-none-eabi/newlib/lib/armv7e-m/fpu\libnosys.a
END GROUP
START GROUP
LOAD c:/nxp/s32ds_arm_v2.0/cross_tools/gcc-arm-none-eabi-4_9/bin/../lib/gcc/arm-none-eabi/4.9.3/armv7e-m/fpu\libgcc.a
LOAD C:/NXP/S32DS_ARM_v2.0/Cross_Tools/gcc-arm-none-eabi-4_9/arm-none-eabi/newlib/lib/armv7e-m/fpu\libc_nano.a
LOAD C:/NXP/S32DS_ARM_v2.0/Cross_Tools/gcc-arm-none-eabi-4_9/arm-none-eabi/newlib/lib/armv7e-m/fpu\libnosys.a
END GROUP
LOAD c:/nxp/s32ds_arm_v2.0/cross_tools/gcc-arm-none-eabi-4_9/bin/../lib/gcc/arm-none-eabi/4.9.3/armv7e-m/fpu/crtend.o
LOAD c:/nxp/s32ds_arm_v2.0/cross_tools/gcc-arm-none-eabi-4_9/bin/../lib/gcc/arm-none-eabi/4.9.3/armv7e-m/fpu/crtn.o
                0x00000400                HEAP_SIZE = DEFINED (__heap_size__)?__heap_size__:0x400
                0x00000400                STACK_SIZE = DEFINED (__stack_size__)?__stack_size__:0x400

.interrupts     0x1fff8000      0x400
                0x1fff8000                __VECTOR_TABLE = .
                0x1fff8000                . = ALIGN (0x4)
 *(.isr_vector)
 .isr_vector    0x1fff8000      0x400 ./Project_Settings/Startup_Code/startup_S32K144.o
                0x1fff8000                __isr_vector
                0x1fff8400                . = ALIGN (0x4)
                0x1fff8000                __VECTOR_RAM = __VECTOR_TABLE
                0x00000000                __RAM_VECTOR_TABLE_SIZE = 0x0

.text           0x1fff8400     0x1ce0
                0x1fff8400                . = ALIGN (0x4)
 *(.text)
 .text          0x1fff8400       0x5c c:/nxp/s32ds_arm_v2.0/cross_tools/gcc-arm-none-eabi-4_9/bin/../lib/gcc/arm-none-eabi/4.9.3/armv7e-m/fpu/crtbegin.o
 .text          0x1fff845c       0x44 ./Project_Settings/Startup_Code/startup_S32K144.o
                0x1fff845c                Reset_Handler
                0x1fff849c                DebugMon_Handler
                0x1fff849c                Reserved88_IRQHandler
                0x1fff849c                CAN0_ORed_IRQHandler
                0x1fff849c                HardFault_Handler
                0x1fff849c                Reserved86_IRQHandler
                0x1fff849c                Reserved103_IRQHandler
                0x1fff849c                SysTick_Handler
                0x1fff849c                FTM2_Ovf_Reload_IRQHandler
                0x1fff849c                Reserved50_IRQHandler
                0x1fff849c                FTFC_Fault_IRQHandler
                0x1fff849c                FTM0_Ch6_Ch7_IRQHandler
                0x1fff849c                Reserved114_IRQHandler
                0x1fff849c                PendSV_Handler
                0x1fff849c                NMI_Handler
                0x1fff849c                Reserved89_IRQHandler
                0x1fff849c                ERM_double_fault_IRQHandler
                0x1fff849c                DMA2_IRQHandler
                0x1fff849c                Reserved59_IRQHandler
                0x1fff849c                LPIT0_Ch0_IRQHandler
                0x1fff849c                Reserved99_IRQHandler
                0x1fff849c                FTM3_Ch6_Ch7_IRQHandler
                0x1fff849c                CAN2_ORed_0_15_MB_IRQHandler
                0x1fff849c                LPIT0_Ch3_IRQHandler
                0x1fff849c                Reserved92_IRQHandler
                0x1fff849c                FTM0_Ch4_Ch5_IRQHandler
                0x1fff849c                CAN1_Error_IRQHandler
                0x1fff849c                FTM3_Ch0_Ch1_IRQHandler
                0x1fff849c                SWI_IRQHandler
                0x1fff849c                ADC0_IRQHandler
                0x1fff849c                FTM2_Ch4_Ch5_IRQHandler
                0x1fff849c                UsageFault_Handler
                0x1fff849c                FTM0_Ovf_Reload_IRQHandler
                0x1fff849c                DefaultISR
                0x1fff849c                DMA9_IRQHandler
                0x1fff849c                Reserved58_IRQHandler
                0x1fff849c                CAN1_ORed_0_15_MB_IRQHandler
                0x1fff849c                FTM1_Ch2_Ch3_IRQHandler
                0x1fff849c                DMA14_IRQHandler
                0x1fff849c                Reserved82_IRQHandler
                0x1fff849c                CAN0_ORed_16_31_MB_IRQHandler
                0x1fff849c                LPI2C0_Slave_IRQHandler
                0x1fff849c                Reserved71_IRQHandler
                0x1fff849c                PORTD_IRQHandler
                0x1fff849c                Reserved69_IRQHandler
                0x1fff849c                PORTB_IRQHandler
                0x1fff849c                Reserved70_IRQHandler
                0x1fff849c                ADC1_IRQHandler
                0x1fff849c                FTM2_Ch2_Ch3_IRQHandler
                0x1fff849c                Reserved53_IRQHandler
                0x1fff849c                DMA5_IRQHandler
                0x1fff849c                RTC_IRQHandler
                0x1fff849c                Reserved54_IRQHandler
                0x1fff849c                FTM2_Ch6_Ch7_IRQHandler
                0x1fff849c                FTM3_Ch2_Ch3_IRQHandler
                0x1fff849c                FTM2_Ch0_Ch1_IRQHandler
                0x1fff849c                LPSPI1_IRQHandler
                0x1fff849c                LPUART1_RxTx_IRQHandler
                0x1fff849c                RTC_Seconds_IRQHandler
                0x1fff849c                CAN2_ORed_IRQHandler
                0x1fff849c                Reserved72_IRQHandler
                0x1fff849c                Reserved110_IRQHandler
                0x1fff849c                DMA11_IRQHandler
                0x1fff849c                Reserved107_IRQHandler
                0x1fff849c                Read_Collision_IRQHandler
                0x1fff849c                CAN2_Error_IRQHandler
                0x1fff849c                FTFC_IRQHandler
                0x1fff849c                DMA7_IRQHandler
                0x1fff849c                FTM1_Ch6_Ch7_IRQHandler
                0x1fff849c                Reserved105_IRQHandler
                0x1fff849c                LPIT0_Ch1_IRQHandler
                0x1fff849c                FTM1_Ch4_Ch5_IRQHandler
                0x1fff849c                FTM3_Ovf_Reload_IRQHandler
                0x1fff849c                LPUART2_RxTx_IRQHandler
                0x1fff849c                LPSPI0_IRQHandler
                0x1fff849c                WDOG_EWM_IRQHandler
                0x1fff849c                MemManage_Handler
                0x1fff849c                Reserved90_IRQHandler
                0x1fff849c                Reserved83_IRQHandler
                0x1fff849c                FTM0_Fault_IRQHandler
                0x1fff849c                Reserved48_IRQHandler
                0x1fff849c                SVC_Handler
                0x1fff849c                ERM_single_fault_IRQHandler
                0x1fff849c                FTM2_Fault_IRQHandler
                0x1fff849c                FTM0_Ch2_Ch3_IRQHandler
                0x1fff849c                DMA13_IRQHandler
                0x1fff849c                FTM0_Ch0_Ch1_IRQHandler
                0x1fff849c                FTM3_Fault_IRQHandler
                0x1fff849c                RCM_IRQHandler
                0x1fff849c                DMA3_IRQHandler
                0x1fff849c                Reserved100_IRQHandler
                0x1fff849c                DMA0_IRQHandler
                0x1fff849c                Reserved91_IRQHandler
                0x1fff849c                CAN1_ORed_IRQHandler
                0x1fff849c                DMA15_IRQHandler
                0x1fff849c                SCG_IRQHandler
                0x1fff849c                PDB1_IRQHandler
                0x1fff849c                Reserved81_IRQHandler
                0x1fff849c                Reserved46_IRQHandler
                0x1fff849c                Reserved45_IRQHandler
                0x1fff849c                CAN0_Error_IRQHandler
                0x1fff849c                Reserved112_IRQHandler
                0x1fff849c                LPI2C0_Master_IRQHandler
                0x1fff849c                DMA4_IRQHandler
                0x1fff849c                FTM1_Fault_IRQHandler
                0x1fff849c                Reserved106_IRQHandler
                0x1fff849c                DMA_Error_IRQHandler
                0x1fff849c                LVD_LVW_IRQHandler
                0x1fff849c                LPIT0_Ch2_IRQHandler
                0x1fff849c                PORTA_IRQHandler
                0x1fff849c                MCM_IRQHandler
                0x1fff849c                LPSPI2_IRQHandler
                0x1fff849c                DMA12_IRQHandler
                0x1fff849c                FTM3_Ch4_Ch5_IRQHandler
                0x1fff849c                CAN0_ORed_0_15_MB_IRQHandler
                0x1fff849c                PORTE_IRQHandler
                0x1fff849c                LPUART0_RxTx_IRQHandler
                0x1fff849c                LPTMR0_IRQHandler
                0x1fff849c                BusFault_Handler
                0x1fff849c                Reserved87_IRQHandler
                0x1fff849c                FTM1_Ovf_Reload_IRQHandler
                0x1fff849c                DMA8_IRQHandler
                0x1fff849c                Reserved93_IRQHandler
                0x1fff849c                DMA10_IRQHandler
                0x1fff849c                CAN0_Wake_Up_IRQHandler
                0x1fff849c                CMP0_IRQHandler
                0x1fff849c                Reserved52_IRQHandler
                0x1fff849c                PORTC_IRQHandler
                0x1fff849c                DMA6_IRQHandler
                0x1fff849c                FTM1_Ch0_Ch1_IRQHandler
                0x1fff849c                FLEXIO_IRQHandler
                0x1fff849c                DMA1_IRQHandler
                0x1fff849c                Reserved113_IRQHandler
 *(.text*)
 .text.PDB_IRQHandler
                0x1fff84a0       0x40 ./Sources/main.o
                0x1fff84a0                PDB_IRQHandler
 .text.PDB0_IRQHandler
                0x1fff84e0        0x8 ./Sources/main.o
                0x1fff84e0                PDB0_IRQHandler
 .text.main     0x1fff84e8       0xd4 ./Sources/main.o
                0x1fff84e8                main
 .text.calculateIntValue
                0x1fff85bc       0x64 ./Sources/helper_functions.o
                0x1fff85bc                calculateIntValue
 .text.PINS_Init
                0x1fff8620       0xa4 ./SDK/platform/drivers/src/pins/pins_port_hw_access.o
                0x1fff8620                PINS_Init
 .text.PINS_DRV_Init
                0x1fff86c4       0x28 ./SDK/platform/drivers/src/pins/pins_driver.o
                0x1fff86c4                PINS_DRV_Init
 .text.PINS_DRV_SetPinDirection
                0x1fff86ec       0x18 ./SDK/platform/drivers/src/pins/pins_driver.o
                0x1fff86ec                PINS_DRV_SetPinDirection
 .text.PINS_DRV_WritePin
                0x1fff8704       0x18 ./SDK/platform/drivers/src/pins/pins_driver.o
                0x1fff8704                PINS_DRV_WritePin
 .text.PINS_DRV_ClearPins
                0x1fff871c        0x4 ./SDK/platform/drivers/src/pins/pins_driver.o
                0x1fff871c                PINS_DRV_ClearPins
 .text.PDB_Init
                0x1fff8720       0x58 ./SDK/platform/drivers/src/pdb/pdb_hw_access.o
                0x1fff8720                PDB_Init
 .text.PDB_ConfigTimer
                0x1fff8778       0x60 ./SDK/platform/drivers/src/pdb/pdb_hw_access.o
                0x1fff8778                PDB_ConfigTimer
 .text.PDB_SetAdcPreTriggerBackToBackEnable
                0x1fff87d8       0x34 ./SDK/platform/drivers/src/pdb/pdb_hw_access.o
                0x1fff87d8                PDB_SetAdcPreTriggerBackToBackEnable
 .text.PDB_SetAdcPreTriggerOutputEnable
                0x1fff880c       0x30 ./SDK/platform/drivers/src/pdb/pdb_hw_access.o
                0x1fff880c                PDB_SetAdcPreTriggerOutputEnable
 .text.PDB_SetAdcPreTriggerEnable
                0x1fff883c       0x2c ./SDK/platform/drivers/src/pdb/pdb_hw_access.o
                0x1fff883c                PDB_SetAdcPreTriggerEnable
 .text.PDB_SetAdcPreTriggerDelayValue
                0x1fff8868       0x10 ./SDK/platform/drivers/src/pdb/pdb_hw_access.o
                0x1fff8868                PDB_SetAdcPreTriggerDelayValue
 .text.PDB_DRV_Init
                0x1fff8878       0x54 ./SDK/platform/drivers/src/pdb/pdb_driver.o
                0x1fff8878                PDB_DRV_Init
 .text.PDB_DRV_SoftTriggerCmd
                0x1fff88cc       0x14 ./SDK/platform/drivers/src/pdb/pdb_driver.o
                0x1fff88cc                PDB_DRV_SoftTriggerCmd
 .text.PDB_DRV_ClearTimerIntFlag
                0x1fff88e0       0x20 ./SDK/platform/drivers/src/pdb/pdb_driver.o
                0x1fff88e0                PDB_DRV_ClearTimerIntFlag
 .text.PDB_DRV_LoadValuesCmd
                0x1fff8900       0x14 ./SDK/platform/drivers/src/pdb/pdb_driver.o
                0x1fff8900                PDB_DRV_LoadValuesCmd
 .text.PDB_DRV_SetTimerModulusValue
                0x1fff8914       0x18 ./SDK/platform/drivers/src/pdb/pdb_driver.o
                0x1fff8914                PDB_DRV_SetTimerModulusValue
 .text.PDB_DRV_SetValueForTimerInterrupt
                0x1fff892c       0x18 ./SDK/platform/drivers/src/pdb/pdb_driver.o
                0x1fff892c                PDB_DRV_SetValueForTimerInterrupt
 .text.PDB_DRV_ConfigAdcPreTrigger
                0x1fff8944       0x44 ./SDK/platform/drivers/src/pdb/pdb_driver.o
                0x1fff8944                PDB_DRV_ConfigAdcPreTrigger
 .text.PDB_DRV_SetAdcPreTriggerDelayValue
                0x1fff8988       0x14 ./SDK/platform/drivers/src/pdb/pdb_driver.o
                0x1fff8988                PDB_DRV_SetAdcPreTriggerDelayValue
 .text.INT_SYS_InstallHandler
                0x1fff899c       0x30 ./SDK/platform/drivers/src/interrupt/interrupt_manager.o
                0x1fff899c                INT_SYS_InstallHandler
 .text.INT_SYS_EnableIRQ
                0x1fff89cc       0x18 ./SDK/platform/drivers/src/interrupt/interrupt_manager.o
                0x1fff89cc                INT_SYS_EnableIRQ
 .text.INT_SYS_DisableIRQ
                0x1fff89e4       0x18 ./SDK/platform/drivers/src/interrupt/interrupt_manager.o
                0x1fff89e4                INT_SYS_DisableIRQ
 .text.INT_SYS_EnableIRQGlobal
                0x1fff89fc       0x1c ./SDK/platform/drivers/src/interrupt/interrupt_manager.o
                0x1fff89fc                INT_SYS_EnableIRQGlobal
 .text.INT_SYS_DisableIRQGlobal
                0x1fff8a18       0x10 ./SDK/platform/drivers/src/interrupt/interrupt_manager.o
                0x1fff8a18                INT_SYS_DisableIRQGlobal
 .text.CLOCK_SYS_Init
                0x1fff8a28       0x1c ./SDK/platform/drivers/src/clock/clock_manager.o
                0x1fff8a28                CLOCK_SYS_Init
 .text.CLOCK_SYS_UpdateConfiguration
                0x1fff8a44       0xec ./SDK/platform/drivers/src/clock/clock_manager.o
                0x1fff8a44                CLOCK_SYS_UpdateConfiguration
 .text.CLOCK_SYS_GetCurrentRunMode
                0x1fff8b30       0x24 ./SDK/platform/drivers/src/clock/S32K1xx/clock_S32K1xx.o
 .text.CLOCK_SYS_GetSysOscFreq
                0x1fff8b54       0x1c ./SDK/platform/drivers/src/clock/S32K1xx/clock_S32K1xx.o
 .text.CLOCK_SYS_ConfigureSOSC
                0x1fff8b70      0x124 ./SDK/platform/drivers/src/clock/S32K1xx/clock_S32K1xx.o
 .text.CLOCK_SYS_GetSircFreq
                0x1fff8c94       0x34 ./SDK/platform/drivers/src/clock/S32K1xx/clock_S32K1xx.o
 .text.CLOCK_SYS_ConfigureSIRC
                0x1fff8cc8       0xc0 ./SDK/platform/drivers/src/clock/S32K1xx/clock_S32K1xx.o
 .text.CLOCK_SYS_GetFircFreq
                0x1fff8d88       0x2c ./SDK/platform/drivers/src/clock/S32K1xx/clock_S32K1xx.o
 .text.CLOCK_SYS_ConfigureFIRC
                0x1fff8db4       0xb8 ./SDK/platform/drivers/src/clock/S32K1xx/clock_S32K1xx.o
 .text.CLOCK_SYS_GetSysPllFreq
                0x1fff8e6c       0x44 ./SDK/platform/drivers/src/clock/S32K1xx/clock_S32K1xx.o
 .text.CLOCK_SYS_ConfigureSPLL
                0x1fff8eb0      0x108 ./SDK/platform/drivers/src/clock/S32K1xx/clock_S32K1xx.o
 .text.CLOCK_SYS_SetSystemClockConfig
                0x1fff8fb8      0x148 ./SDK/platform/drivers/src/clock/S32K1xx/clock_S32K1xx.o
 .text.CLOCK_SYS_TransitionSystemClock
                0x1fff9100       0x3c ./SDK/platform/drivers/src/clock/S32K1xx/clock_S32K1xx.o
 .text.CLOCK_SYS_GetSystemClockFreq
                0x1fff913c       0x7c ./SDK/platform/drivers/src/clock/S32K1xx/clock_S32K1xx.o
 .text.CLOCK_SYS_GetScgClkOutFreq
                0x1fff91b8       0x4c ./SDK/platform/drivers/src/clock/S32K1xx/clock_S32K1xx.o
 .text.CLOCK_SYS_GetSysAsyncFreq
                0x1fff9204       0xd8 ./SDK/platform/drivers/src/clock/S32K1xx/clock_S32K1xx.o
 .text.CLOCK_SYS_GetSimRtcClkFreq
                0x1fff92dc       0x54 ./SDK/platform/drivers/src/clock/S32K1xx/clock_S32K1xx.o
 .text.CLOCK_SYS_GetPeripheralClock
                0x1fff9330       0x80 ./SDK/platform/drivers/src/clock/S32K1xx/clock_S32K1xx.o
 .text.CLOCK_SYS_GetLpoFreq
                0x1fff93b0       0x48 ./SDK/platform/drivers/src/clock/S32K1xx/clock_S32K1xx.o
 .text.CLOCK_SYS_GetSimClkOutFreq
                0x1fff93f8       0x74 ./SDK/platform/drivers/src/clock/S32K1xx/clock_S32K1xx.o
 .text.CLOCK_SYS_SetScgConfiguration
                0x1fff946c      0x210 ./SDK/platform/drivers/src/clock/S32K1xx/clock_S32K1xx.o
                0x1fff946c                CLOCK_SYS_SetScgConfiguration
 .text.CLOCK_SYS_SetPccConfiguration
                0x1fff967c       0x80 ./SDK/platform/drivers/src/clock/S32K1xx/clock_S32K1xx.o
                0x1fff967c                CLOCK_SYS_SetPccConfiguration
 .text.CLOCK_SYS_SetSimConfiguration
                0x1fff96fc      0x144 ./SDK/platform/drivers/src/clock/S32K1xx/clock_S32K1xx.o
                0x1fff96fc                CLOCK_SYS_SetSimConfiguration
 .text.CLOCK_SYS_SetPmcConfiguration
                0x1fff9840       0x3c ./SDK/platform/drivers/src/clock/S32K1xx/clock_S32K1xx.o
                0x1fff9840                CLOCK_SYS_SetPmcConfiguration
 .text.CLOCK_SYS_SetConfiguration
                0x1fff987c       0x28 ./SDK/platform/drivers/src/clock/S32K1xx/clock_S32K1xx.o
                0x1fff987c                CLOCK_SYS_SetConfiguration
 .text.CLOCK_SYS_GetFreq
                0x1fff98a4      0x408 ./SDK/platform/drivers/src/clock/S32K1xx/clock_S32K1xx.o
                0x1fff98a4                CLOCK_SYS_GetFreq
 .text.ADC_DRV_ConfigConverter
                0x1fff9cac      0x168 ./SDK/platform/drivers/src/adc/adc_driver.o
                0x1fff9cac                ADC_DRV_ConfigConverter
 .text.ADC_DRV_ConfigChan
                0x1fff9e14       0x40 ./SDK/platform/drivers/src/adc/adc_driver.o
                0x1fff9e14                ADC_DRV_ConfigChan
 .text.ADC_DRV_GetChanResult
                0x1fff9e54       0x18 ./SDK/platform/drivers/src/adc/adc_driver.o
                0x1fff9e54                ADC_DRV_GetChanResult
 .text.init_data_bss
                0x1fff9e6c       0xb4 ./SDK/platform/devices/startup.o
                0x1fff9e6c                init_data_bss
 .text.SystemInit
                0x1fff9f20       0x3c ./SDK/platform/devices/S32K144/startup/system_S32K144.o
                0x1fff9f20                SystemInit
 *(.rodata)
 .rodata        0x1fff9f5c       0x20 ./SDK/platform/drivers/src/adc/adc_driver.o
 *(.rodata*)
 .rodata.s_pdbClkNames.5721
                0x1fff9f7c        0x2 ./SDK/platform/drivers/src/pdb/pdb_driver.o
 *fill*         0x1fff9f7e        0x2 
 .rodata.s_pdbBase
                0x1fff9f80        0x8 ./SDK/platform/drivers/src/pdb/pdb_driver.o
 .rodata.s_pdbIrqId
                0x1fff9f88        0x2 ./SDK/platform/drivers/src/pdb/pdb_driver.o
 *fill*         0x1fff9f8a        0x2 
 .rodata.fircFreq.6274
                0x1fff9f8c       0x10 ./SDK/platform/drivers/src/clock/S32K1xx/clock_S32K1xx.o
 .rodata.maxClocksFreq.6219
                0x1fff9f9c       0x24 ./SDK/platform/drivers/src/clock/S32K1xx/clock_S32K1xx.o
 .rodata.clockNameMappings
                0x1fff9fc0       0x9e ./SDK/platform/drivers/src/clock/S32K1xx/clock_S32K1xx.o
                0x1fff9fc0                clockNameMappings
 *fill*         0x1fffa05e        0x2 
 .rodata.peripheralFeaturesList
                0x1fffa060       0x4f ./SDK/platform/drivers/src/clock/S32K1xx/clock_S32K1xx.o
                0x1fffa060                peripheralFeaturesList
 *fill*         0x1fffa0af        0x1 
 .rodata.s_adcBase
                0x1fffa0b0        0x8 ./SDK/platform/drivers/src/adc/adc_driver.o
 .rodata.pdly1_AdcTrigInitConfig0
                0x1fffa0b8        0x8 ./Generated_Code/pdly1.o
                0x1fffa0b8                pdly1_AdcTrigInitConfig0
 .rodata.pdly1_InitConfig0
                0x1fffa0c0        0x8 ./Generated_Code/pdly1.o
                0x1fffa0c0                pdly1_InitConfig0
 *(.glue_7)
 .glue_7        0x00000000        0x0 linker stubs
 *(.glue_7t)
 .glue_7t       0x00000000        0x0 linker stubs
 *(.eh_frame)
 .eh_frame      0x1fffa0c8        0x0 c:/nxp/s32ds_arm_v2.0/cross_tools/gcc-arm-none-eabi-4_9/bin/../lib/gcc/arm-none-eabi/4.9.3/armv7e-m/fpu/crtbegin.o
 *(.init)
 .init          0x1fffa0c8        0x4 c:/nxp/s32ds_arm_v2.0/cross_tools/gcc-arm-none-eabi-4_9/bin/../lib/gcc/arm-none-eabi/4.9.3/armv7e-m/fpu/crti.o
                0x1fffa0c8                _init
 .init          0x1fffa0cc        0x8 c:/nxp/s32ds_arm_v2.0/cross_tools/gcc-arm-none-eabi-4_9/bin/../lib/gcc/arm-none-eabi/4.9.3/armv7e-m/fpu/crtn.o
 *(.fini)
 .fini          0x1fffa0d4        0x4 c:/nxp/s32ds_arm_v2.0/cross_tools/gcc-arm-none-eabi-4_9/bin/../lib/gcc/arm-none-eabi/4.9.3/armv7e-m/fpu/crti.o
                0x1fffa0d4                _fini
 .fini          0x1fffa0d8        0x8 c:/nxp/s32ds_arm_v2.0/cross_tools/gcc-arm-none-eabi-4_9/bin/../lib/gcc/arm-none-eabi/4.9.3/armv7e-m/fpu/crtn.o
                0x1fffa0e0                . = ALIGN (0x4)

.vfp11_veneer   0x1fffa0e0        0x0
 .vfp11_veneer  0x00000000        0x0 linker stubs

.v4_bx          0x1fffa0e0        0x0
 .v4_bx         0x00000000        0x0 linker stubs

.iplt           0x1fffa0e0        0x0
 .iplt          0x00000000        0x0 c:/nxp/s32ds_arm_v2.0/cross_tools/gcc-arm-none-eabi-4_9/bin/../lib/gcc/arm-none-eabi/4.9.3/armv7e-m/fpu/crtbegin.o

.rel.dyn        0x1fffa0e0        0x0
 .rel.iplt      0x00000000        0x0 c:/nxp/s32ds_arm_v2.0/cross_tools/gcc-arm-none-eabi-4_9/bin/../lib/gcc/arm-none-eabi/4.9.3/armv7e-m/fpu/crtbegin.o

.code_ram       0x1fffa0e0        0x0
                0x1fffa0e0                . = ALIGN (0x4)
                0x1fffa0e0                __CODE_RAM = .
 *(.code_ram)
                0x1fffa0e0                __CODE_ROM = .
                0x1fffa0e0                __CODE_END = .
                0x1fffa0e0                . = ALIGN (0x4)

.ARM.extab
 *(.ARM.extab* .gnu.linkonce.armextab.*)

.ARM            0x1fffa0e0        0x0
                0x1fffa0e0                __exidx_start = .
 *(.ARM.exidx*)
                0x1fffa0e0                __exidx_end = .

.ctors          0x1fffa0e0        0x0
                0x1fffa0e0                __CTOR_LIST__ = .
 *crtbegin.o(.ctors)
 *crtbegin?.o(.ctors)
 *(EXCLUDE_FILE(*crtend.o *crtend?.o) .ctors)
 *(SORT(.ctors.*))
 *(.ctors)
                0x1fffa0e0                __CTOR_END__ = .

.dtors          0x1fffa0e0        0x0
                0x1fffa0e0                __DTOR_LIST__ = .
 *crtbegin.o(.dtors)
 *crtbegin?.o(.dtors)
 *(EXCLUDE_FILE(*crtend.o *crtend?.o) .dtors)
 *(SORT(.dtors.*))
 *(.dtors)
                0x1fffa0e0                __DTOR_END__ = .

.preinit_array  0x1fffa0e0        0x0
                0x1fffa0e0                PROVIDE (__preinit_array_start, .)
 *(.preinit_array*)
                0x1fffa0e0                PROVIDE (__preinit_array_end, .)

.init_array     0x1fffa0e0        0x4
                0x1fffa0e0                PROVIDE (__init_array_start, .)
 *(SORT(.init_array.*))
 *(.init_array*)
 .init_array    0x1fffa0e0        0x4 c:/nxp/s32ds_arm_v2.0/cross_tools/gcc-arm-none-eabi-4_9/bin/../lib/gcc/arm-none-eabi/4.9.3/armv7e-m/fpu/crtbegin.o
                0x1fffa0e4                PROVIDE (__init_array_end, .)

.fini_array     0x1fffa0e4        0x4
                0x1fffa0e4                PROVIDE (__fini_array_start, .)
 *(SORT(.fini_array.*))
 *(.fini_array*)
 .fini_array    0x1fffa0e4        0x4 c:/nxp/s32ds_arm_v2.0/cross_tools/gcc-arm-none-eabi-4_9/bin/../lib/gcc/arm-none-eabi/4.9.3/armv7e-m/fpu/crtbegin.o
                0x1fffa0e8                PROVIDE (__fini_array_end, .)
                0x1fffa0e8                __etext = .
                0x1fffa0e8                __DATA_ROM = .
                0x1fffa0e8                __DATA_END = __DATA_ROM

.customSectionBlock
 *(.customSection)

.data           0x20000000      0x910
                0x20000000                . = ALIGN (0x4)
                0x20000000                __DATA_RAM = .
                0x20000000                __data_start__ = .
 *(.data)
 *(.data*)
 .data.g_pin_mux_InitConfigArr
                0x20000000      0x858 ./Generated_Code/pin_mux.o
                0x20000000                g_pin_mux_InitConfigArr
 .data.clockMan1_InitConfig0
                0x20000858       0x78 ./Generated_Code/clockMan1.o
                0x20000858                clockMan1_InitConfig0
 .data.peripheralClockConfig0
                0x200008d0       0x28 ./Generated_Code/clockMan1.o
                0x200008d0                peripheralClockConfig0
 .data.g_clockManConfigsArr
                0x200008f8        0x4 ./Generated_Code/clockMan1.o
                0x200008f8                g_clockManConfigsArr
 .data.adConv1_ConvConfig0
                0x200008fc        0xa ./Generated_Code/adConv1.o
                0x200008fc                adConv1_ConvConfig0
 *fill*         0x20000906        0x2 
 .data.adConv1_ChnConfig0
                0x20000908        0x2 ./Generated_Code/adConv1.o
                0x20000908                adConv1_ChnConfig0
 *(.jcr*)
 *fill*         0x2000090a        0x2 
 .jcr           0x2000090c        0x0 c:/nxp/s32ds_arm_v2.0/cross_tools/gcc-arm-none-eabi-4_9/bin/../lib/gcc/arm-none-eabi/4.9.3/armv7e-m/fpu/crtbegin.o
 .jcr           0x2000090c        0x4 c:/nxp/s32ds_arm_v2.0/cross_tools/gcc-arm-none-eabi-4_9/bin/../lib/gcc/arm-none-eabi/4.9.3/armv7e-m/fpu/crtend.o
                0x20000910                . = ALIGN (0x4)
                0x20000910                __data_end__ = .

.igot.plt       0x20000910        0x0
 .igot.plt      0x00000000        0x0 c:/nxp/s32ds_arm_v2.0/cross_tools/gcc-arm-none-eabi-4_9/bin/../lib/gcc/arm-none-eabi/4.9.3/armv7e-m/fpu/crtbegin.o

.bss            0x20000910       0x50
                0x20000910                . = ALIGN (0x4)
                0x20000910                __BSS_START = .
                0x20000910                __bss_start__ = .
 *(.bss)
 .bss           0x20000910       0x1c c:/nxp/s32ds_arm_v2.0/cross_tools/gcc-arm-none-eabi-4_9/bin/../lib/gcc/arm-none-eabi/4.9.3/armv7e-m/fpu/crtbegin.o
 *(.bss*)
 .bss.flag      0x2000092c        0x1 ./Sources/main.o
                0x2000092c                flag
 *fill*         0x2000092d        0x1 
 .bss.counter   0x2000092e        0x2 ./Sources/main.o
                0x2000092e                counter
 .bss.g_interruptDisableCount
                0x20000930        0x4 ./SDK/platform/drivers/src/interrupt/interrupt_manager.o
 .bss.g_clockState
                0x20000934       0x10 ./SDK/platform/drivers/src/clock/clock_manager.o
 .bss.g_clockManCallbacksArr
                0x20000944        0x4 ./Generated_Code/clockMan1.o
                0x20000944                g_clockManCallbacksArr
 *(COMMON)
 COMMON         0x20000948        0x4 ./Sources/main.o
                0x20000948                adcConvDone
                0x2000094a                adcRawValue
 COMMON         0x2000094c       0x14 ./SDK/platform/drivers/src/clock/S32K1xx/clock_S32K1xx.o
                0x2000094c                g_xtal0ClkFreq
                0x20000950                g_RtcClkInFreq
                0x20000954                g_TClkFreq
                0x20000960                . = ALIGN (0x4)
                0x20000960                __bss_end__ = .
                0x20000960                __BSS_END = .

.heap           0x20000960      0x400
                0x20000960                . = ALIGN (0x8)
                0x20000960                __end__ = .
                0x20000960                PROVIDE (end, .)
                0x20000960                PROVIDE (_end, .)
                0x20000960                PROVIDE (__end, .)
                0x20000960                __HeapBase = .
                0x20000d60                . = (. + HEAP_SIZE)
 *fill*         0x20000960      0x400 
                0x20000d60                __HeapLimit = .
                0x20000d60                __heap_limit = .

.stack          0x20000d60      0x400
                0x20000d60                . = ALIGN (0x8)
                0x20001160                . = (. + STACK_SIZE)
 *fill*         0x20000d60      0x400 
                0x20007000                __StackTop = (ORIGIN (m_data) + 0x7000)
                0x20006c00                __StackLimit = (__StackTop - STACK_SIZE)
                0x20007000                PROVIDE (__stack, __StackTop)

.ARM.attributes
                0x00000000       0x30
 *(.ARM.attributes)
 .ARM.attributes
                0x00000000       0x22 c:/nxp/s32ds_arm_v2.0/cross_tools/gcc-arm-none-eabi-4_9/bin/../lib/gcc/arm-none-eabi/4.9.3/armv7e-m/fpu/crti.o
 .ARM.attributes
                0x00000022       0x34 c:/nxp/s32ds_arm_v2.0/cross_tools/gcc-arm-none-eabi-4_9/bin/../lib/gcc/arm-none-eabi/4.9.3/armv7e-m/fpu/crtbegin.o
 .ARM.attributes
                0x00000056       0x39 ./Sources/main.o
 .ARM.attributes
                0x0000008f       0x39 ./Sources/helper_functions.o
 .ARM.attributes
                0x000000c8       0x39 ./SDK/platform/drivers/src/pins/pins_port_hw_access.o
 .ARM.attributes
                0x00000101       0x39 ./SDK/platform/drivers/src/pins/pins_driver.o
 .ARM.attributes
                0x0000013a       0x39 ./SDK/platform/drivers/src/pdb/pdb_hw_access.o
 .ARM.attributes
                0x00000173       0x39 ./SDK/platform/drivers/src/pdb/pdb_driver.o
 .ARM.attributes
                0x000001ac       0x39 ./SDK/platform/drivers/src/interrupt/interrupt_manager.o
 .ARM.attributes
                0x000001e5       0x39 ./SDK/platform/drivers/src/clock/clock_manager.o
 .ARM.attributes
                0x0000021e       0x39 ./SDK/platform/drivers/src/clock/S32K1xx/clock_S32K1xx.o
 .ARM.attributes
                0x00000257       0x39 ./SDK/platform/drivers/src/adc/adc_driver.o
 .ARM.attributes
                0x00000290       0x39 ./SDK/platform/devices/startup.o
 .ARM.attributes
                0x000002c9       0x39 ./SDK/platform/devices/S32K144/startup/system_S32K144.o
 .ARM.attributes
                0x00000302       0x1f ./Project_Settings/Startup_Code/startup_S32K144.o
 .ARM.attributes
                0x00000321       0x39 ./Generated_Code/pin_mux.o
 .ARM.attributes
                0x0000035a       0x39 ./Generated_Code/pdly1.o
 .ARM.attributes
                0x00000393       0x39 ./Generated_Code/clockMan1.o
 .ARM.attributes
                0x000003cc       0x39 ./Generated_Code/adConv1.o
 .ARM.attributes
                0x00000405       0x34 c:/nxp/s32ds_arm_v2.0/cross_tools/gcc-arm-none-eabi-4_9/bin/../lib/gcc/arm-none-eabi/4.9.3/armv7e-m/fpu/crtend.o
 .ARM.attributes
                0x00000439       0x22 c:/nxp/s32ds_arm_v2.0/cross_tools/gcc-arm-none-eabi-4_9/bin/../lib/gcc/arm-none-eabi/4.9.3/armv7e-m/fpu/crtn.o
                0x00000001                ASSERT ((__StackLimit >= __HeapLimit), region m_data overflowed with stack and heap)

/DISCARD/
 *(.FlashConfig)
OUTPUT(pdb_periodic_interrupt_s32k144.elf elf32-littlearm)

.debug_info     0x00000000    0x11b59
 .debug_info    0x00000000     0x1fa4 ./Sources/main.o
 .debug_info    0x00001fa4      0x96b ./Sources/helper_functions.o
 .debug_info    0x0000290f      0x59f ./SDK/platform/drivers/src/pins/pins_port_hw_access.o
 .debug_info    0x00002eae     0x1028 ./SDK/platform/drivers/src/pins/pins_driver.o
 .debug_info    0x00003ed6      0x75f ./SDK/platform/drivers/src/pdb/pdb_hw_access.o
 .debug_info    0x00004635     0x1613 ./SDK/platform/drivers/src/pdb/pdb_driver.o
 .debug_info    0x00005c48      0x8e3 ./SDK/platform/drivers/src/interrupt/interrupt_manager.o
 .debug_info    0x0000652b     0x1207 ./SDK/platform/drivers/src/clock/clock_manager.o
 .debug_info    0x00007732     0x54c1 ./SDK/platform/drivers/src/clock/S32K1xx/clock_S32K1xx.o
 .debug_info    0x0000cbf3     0x2709 ./SDK/platform/drivers/src/adc/adc_driver.o
 .debug_info    0x0000f2fc      0x3fa ./SDK/platform/devices/startup.o
 .debug_info    0x0000f6f6      0x516 ./SDK/platform/devices/S32K144/startup/system_S32K144.o
 .debug_info    0x0000fc0c       0xfb ./Project_Settings/Startup_Code/startup_S32K144.o
 .debug_info    0x0000fd07      0x3a9 ./Generated_Code/pin_mux.o
 .debug_info    0x000100b0      0x456 ./Generated_Code/pdly1.o
 .debug_info    0x00010506     0x1079 ./Generated_Code/clockMan1.o
 .debug_info    0x0001157f      0x5da ./Generated_Code/adConv1.o

.debug_abbrev   0x00000000     0x1c48
 .debug_abbrev  0x00000000      0x223 ./Sources/main.o
 .debug_abbrev  0x00000223      0x188 ./Sources/helper_functions.o
 .debug_abbrev  0x000003ab       0xe9 ./SDK/platform/drivers/src/pins/pins_port_hw_access.o
 .debug_abbrev  0x00000494      0x2af ./SDK/platform/drivers/src/pins/pins_driver.o
 .debug_abbrev  0x00000743      0x27d ./SDK/platform/drivers/src/pdb/pdb_hw_access.o
 .debug_abbrev  0x000009c0      0x350 ./SDK/platform/drivers/src/pdb/pdb_driver.o
 .debug_abbrev  0x00000d10      0x1cf ./SDK/platform/drivers/src/interrupt/interrupt_manager.o
 .debug_abbrev  0x00000edf      0x1b3 ./SDK/platform/drivers/src/clock/clock_manager.o
 .debug_abbrev  0x00001092      0x346 ./SDK/platform/drivers/src/clock/S32K1xx/clock_S32K1xx.o
 .debug_abbrev  0x000013d8      0x311 ./SDK/platform/drivers/src/adc/adc_driver.o
 .debug_abbrev  0x000016e9      0x10c ./SDK/platform/devices/startup.o
 .debug_abbrev  0x000017f5      0x134 ./SDK/platform/devices/S32K144/startup/system_S32K144.o
 .debug_abbrev  0x00001929       0x14 ./Project_Settings/Startup_Code/startup_S32K144.o
 .debug_abbrev  0x0000193d       0xbe ./Generated_Code/pin_mux.o
 .debug_abbrev  0x000019fb       0x8d ./Generated_Code/pdly1.o
 .debug_abbrev  0x00001a88      0x10a ./Generated_Code/clockMan1.o
 .debug_abbrev  0x00001b92       0xb6 ./Generated_Code/adConv1.o

.debug_aranges  0x00000000      0x5b8
 .debug_aranges
                0x00000000       0x30 ./Sources/main.o
 .debug_aranges
                0x00000030       0x28 ./Sources/helper_functions.o
 .debug_aranges
                0x00000058       0x20 ./SDK/platform/drivers/src/pins/pins_port_hw_access.o
 .debug_aranges
                0x00000078       0xb8 ./SDK/platform/drivers/src/pins/pins_driver.o
 .debug_aranges
                0x00000130       0x60 ./SDK/platform/drivers/src/pdb/pdb_hw_access.o
 .debug_aranges
                0x00000190       0xa8 ./SDK/platform/drivers/src/pdb/pdb_driver.o
 .debug_aranges
                0x00000238       0x70 ./SDK/platform/drivers/src/interrupt/interrupt_manager.o
 .debug_aranges
                0x000002a8       0x38 ./SDK/platform/drivers/src/clock/clock_manager.o
 .debug_aranges
                0x000002e0      0x128 ./SDK/platform/drivers/src/clock/S32K1xx/clock_S32K1xx.o
 .debug_aranges
                0x00000408       0xe0 ./SDK/platform/drivers/src/adc/adc_driver.o
 .debug_aranges
                0x000004e8       0x20 ./SDK/platform/devices/startup.o
 .debug_aranges
                0x00000508       0x30 ./SDK/platform/devices/S32K144/startup/system_S32K144.o
 .debug_aranges
                0x00000538       0x20 ./Project_Settings/Startup_Code/startup_S32K144.o
 .debug_aranges
                0x00000558       0x18 ./Generated_Code/pin_mux.o
 .debug_aranges
                0x00000570       0x18 ./Generated_Code/pdly1.o
 .debug_aranges
                0x00000588       0x18 ./Generated_Code/clockMan1.o
 .debug_aranges
                0x000005a0       0x18 ./Generated_Code/adConv1.o

.debug_ranges   0x00000000      0x640
 .debug_ranges  0x00000000       0x20 ./Sources/main.o
 .debug_ranges  0x00000020       0x18 ./Sources/helper_functions.o
 .debug_ranges  0x00000038       0x10 ./SDK/platform/drivers/src/pins/pins_port_hw_access.o
 .debug_ranges  0x00000048       0xa8 ./SDK/platform/drivers/src/pins/pins_driver.o
 .debug_ranges  0x000000f0       0x68 ./SDK/platform/drivers/src/pdb/pdb_hw_access.o
 .debug_ranges  0x00000158       0x98 ./SDK/platform/drivers/src/pdb/pdb_driver.o
 .debug_ranges  0x000001f0       0x78 ./SDK/platform/drivers/src/interrupt/interrupt_manager.o
 .debug_ranges  0x00000268       0x28 ./SDK/platform/drivers/src/clock/clock_manager.o
 .debug_ranges  0x00000290      0x270 ./SDK/platform/drivers/src/clock/S32K1xx/clock_S32K1xx.o
 .debug_ranges  0x00000500      0x110 ./SDK/platform/drivers/src/adc/adc_driver.o
 .debug_ranges  0x00000610       0x10 ./SDK/platform/devices/startup.o
 .debug_ranges  0x00000620       0x20 ./SDK/platform/devices/S32K144/startup/system_S32K144.o

.debug_macro    0x00000000    0x271e6
 .debug_macro   0x00000000      0xace ./Sources/main.o
 .debug_macro   0x00000ace       0x10 ./Sources/main.o
 .debug_macro   0x00000ade       0x73 ./Sources/main.o
 .debug_macro   0x00000b51       0x19 ./Sources/main.o
 .debug_macro   0x00000b6a       0x22 ./Sources/main.o
 .debug_macro   0x00000b8c       0x44 ./Sources/main.o
 .debug_macro   0x00000bd0       0xe3 ./Sources/main.o
 .debug_macro   0x00000cb3       0x22 ./Sources/main.o
 .debug_macro   0x00000cd5      0x1df ./Sources/main.o
 .debug_macro   0x00000eb4     0xdf8d ./Sources/main.o
 .debug_macro   0x0000ee41      0x978 ./Sources/main.o
 .debug_macro   0x0000f7b9       0x22 ./Sources/main.o
 .debug_macro   0x0000f7db       0x10 ./Sources/main.o
 .debug_macro   0x0000f7eb       0x22 ./Sources/main.o
 .debug_macro   0x0000f80d      0x166 ./Sources/main.o
 .debug_macro   0x0000f973       0x10 ./Sources/main.o
 .debug_macro   0x0000f983       0x1c ./Sources/main.o
 .debug_macro   0x0000f99f      0xa56 ./Sources/helper_functions.o
 .debug_macro   0x000103f5     0xdfa2 ./Sources/helper_functions.o
 .debug_macro   0x0001e397      0xa17 ./SDK/platform/drivers/src/pins/pins_port_hw_access.o
 .debug_macro   0x0001edae      0xa21 ./SDK/platform/drivers/src/pins/pins_driver.o
 .debug_macro   0x0001f7cf      0xa1d ./SDK/platform/drivers/src/pdb/pdb_hw_access.o
 .debug_macro   0x000201ec       0x10 ./SDK/platform/drivers/src/pdb/pdb_hw_access.o
 .debug_macro   0x000201fc      0xa27 ./SDK/platform/drivers/src/pdb/pdb_driver.o
 .debug_macro   0x00020c23      0x9fa ./SDK/platform/drivers/src/interrupt/interrupt_manager.o
 .debug_macro   0x0002161d      0xa20 ./SDK/platform/drivers/src/clock/clock_manager.o
 .debug_macro   0x0002203d      0xa98 ./SDK/platform/drivers/src/clock/S32K1xx/clock_S32K1xx.o
 .debug_macro   0x00022ad5      0xa00 ./SDK/platform/drivers/src/adc/adc_driver.o
 .debug_macro   0x000234d5      0x9fa ./SDK/platform/devices/startup.o
 .debug_macro   0x00023ecf      0x9f9 ./SDK/platform/devices/S32K144/startup/system_S32K144.o
 .debug_macro   0x000248c8      0xa20 ./Generated_Code/pin_mux.o
 .debug_macro   0x000252e8      0xa52 ./Generated_Code/pdly1.o
 .debug_macro   0x00025d3a      0xa44 ./Generated_Code/clockMan1.o
 .debug_macro   0x0002677e       0x16 ./Generated_Code/clockMan1.o
 .debug_macro   0x00026794      0xa52 ./Generated_Code/adConv1.o

.debug_line     0x00000000     0x5e11
 .debug_line    0x00000000      0x5d8 ./Sources/main.o
 .debug_line    0x000005d8      0x58d ./Sources/helper_functions.o
 .debug_line    0x00000b65      0x435 ./SDK/platform/drivers/src/pins/pins_port_hw_access.o
 .debug_line    0x00000f9a      0x60d ./SDK/platform/drivers/src/pins/pins_driver.o
 .debug_line    0x000015a7      0x576 ./SDK/platform/drivers/src/pdb/pdb_hw_access.o
 .debug_line    0x00001b1d      0x626 ./SDK/platform/drivers/src/pdb/pdb_driver.o
 .debug_line    0x00002143      0x4e1 ./SDK/platform/drivers/src/interrupt/interrupt_manager.o
 .debug_line    0x00002624      0x51c ./SDK/platform/drivers/src/clock/clock_manager.o
 .debug_line    0x00002b40     0x1104 ./SDK/platform/drivers/src/clock/S32K1xx/clock_S32K1xx.o
 .debug_line    0x00003c44      0x7e5 ./SDK/platform/drivers/src/adc/adc_driver.o
 .debug_line    0x00004429      0x360 ./SDK/platform/devices/startup.o
 .debug_line    0x00004789      0x3e3 ./SDK/platform/devices/S32K144/startup/system_S32K144.o
 .debug_line    0x00004b6c       0xbc ./Project_Settings/Startup_Code/startup_S32K144.o
 .debug_line    0x00004c28      0x3b2 ./Generated_Code/pin_mux.o
 .debug_line    0x00004fda      0x4b9 ./Generated_Code/pdly1.o
 .debug_line    0x00005493      0x4c1 ./Generated_Code/clockMan1.o
 .debug_line    0x00005954      0x4bd ./Generated_Code/adConv1.o

.debug_str      0x00000000    0x679e1
 .debug_str     0x00000000    0x643fb ./Sources/main.o
                              0x64875 (size before relaxing)
 .debug_str     0x000643fb      0x120 ./Sources/helper_functions.o
                              0x624f6 (size before relaxing)
 .debug_str     0x0006451b       0xa1 ./SDK/platform/drivers/src/pins/pins_port_hw_access.o
                              0x620d3 (size before relaxing)
 .debug_str     0x000645bc      0x3df ./SDK/platform/drivers/src/pins/pins_driver.o
                              0x624b4 (size before relaxing)
 .debug_str     0x0006499b      0x1fa ./SDK/platform/drivers/src/pdb/pdb_hw_access.o
                              0x61cb6 (size before relaxing)
 .debug_str     0x00064b95      0x29c ./SDK/platform/drivers/src/pdb/pdb_driver.o
                              0x63046 (size before relaxing)
 .debug_str     0x00064e31      0x257 ./SDK/platform/drivers/src/interrupt/interrupt_manager.o
                              0x61c86 (size before relaxing)
 .debug_str     0x00065088      0x1b6 ./SDK/platform/drivers/src/clock/clock_manager.o
                              0x6334a (size before relaxing)
 .debug_str     0x0006523e     0x1a97 ./SDK/platform/drivers/src/clock/S32K1xx/clock_S32K1xx.o
                              0x64b6e (size before relaxing)
 .debug_str     0x00066cd5      0xa27 ./SDK/platform/drivers/src/adc/adc_driver.o
                              0x62ceb (size before relaxing)
 .debug_str     0x000676fc      0x138 ./SDK/platform/devices/startup.o
                              0x615d5 (size before relaxing)
 .debug_str     0x00067834       0xe5 ./SDK/platform/devices/S32K144/startup/system_S32K144.o
                              0x616ae (size before relaxing)
 .debug_str     0x00067919       0x1c ./Generated_Code/pin_mux.o
                              0x61b0c (size before relaxing)
 .debug_str     0x00067935       0x1a ./Generated_Code/pdly1.o
                              0x61d33 (size before relaxing)
 .debug_str     0x0006794f       0x4b ./Generated_Code/clockMan1.o
                              0x63038 (size before relaxing)
 .debug_str     0x0006799a       0x47 ./Generated_Code/adConv1.o
                              0x61f2d (size before relaxing)

.comment        0x00000000       0x70
 .comment       0x00000000       0x70 ./Sources/main.o
                                 0x71 (size before relaxing)
 .comment       0x00000000       0x71 ./Sources/helper_functions.o
 .comment       0x00000000       0x71 ./SDK/platform/drivers/src/pins/pins_port_hw_access.o
 .comment       0x00000000       0x71 ./SDK/platform/drivers/src/pins/pins_driver.o
 .comment       0x00000000       0x71 ./SDK/platform/drivers/src/pdb/pdb_hw_access.o
 .comment       0x00000000       0x71 ./SDK/platform/drivers/src/pdb/pdb_driver.o
 .comment       0x00000000       0x71 ./SDK/platform/drivers/src/interrupt/interrupt_manager.o
 .comment       0x00000000       0x71 ./SDK/platform/drivers/src/clock/clock_manager.o
 .comment       0x00000000       0x71 ./SDK/platform/drivers/src/clock/S32K1xx/clock_S32K1xx.o
 .comment       0x00000000       0x71 ./SDK/platform/drivers/src/adc/adc_driver.o
 .comment       0x00000000       0x71 ./SDK/platform/devices/startup.o
 .comment       0x00000000       0x71 ./SDK/platform/devices/S32K144/startup/system_S32K144.o
 .comment       0x00000000       0x71 ./Generated_Code/pin_mux.o
 .comment       0x00000000       0x71 ./Generated_Code/pdly1.o
 .comment       0x00000000       0x71 ./Generated_Code/clockMan1.o
 .comment       0x00000000       0x71 ./Generated_Code/adConv1.o

.debug_frame    0x00000000      0xc50
 .debug_frame   0x00000000       0x5c ./Sources/main.o
 .debug_frame   0x0000005c       0x58 ./Sources/helper_functions.o
 .debug_frame   0x000000b4       0x30 ./SDK/platform/drivers/src/pins/pins_port_hw_access.o
 .debug_frame   0x000000e4      0x178 ./SDK/platform/drivers/src/pins/pins_driver.o
 .debug_frame   0x0000025c       0xf0 ./SDK/platform/drivers/src/pdb/pdb_hw_access.o
 .debug_frame   0x0000034c      0x17c ./SDK/platform/drivers/src/pdb/pdb_driver.o
 .debug_frame   0x000004c8       0xe8 ./SDK/platform/drivers/src/interrupt/interrupt_manager.o
 .debug_frame   0x000005b0       0x74 ./SDK/platform/drivers/src/clock/clock_manager.o
 .debug_frame   0x00000624      0x3a0 ./SDK/platform/drivers/src/clock/S32K1xx/clock_S32K1xx.o
 .debug_frame   0x000009c4      0x220 ./SDK/platform/drivers/src/adc/adc_driver.o
 .debug_frame   0x00000be4       0x2c ./SDK/platform/devices/startup.o
 .debug_frame   0x00000c10       0x40 ./SDK/platform/devices/S32K144/startup/system_S32K144.o

.debug_loc      0x00000000     0x7738
 .debug_loc     0x00000000      0x176 ./Sources/helper_functions.o
 .debug_loc     0x00000176      0x110 ./SDK/platform/drivers/src/pins/pins_port_hw_access.o
 .debug_loc     0x00000286      0x359 ./SDK/platform/drivers/src/pins/pins_driver.o
 .debug_loc     0x000005df      0x482 ./SDK/platform/drivers/src/pdb/pdb_hw_access.o
 .debug_loc     0x00000a61      0x7eb ./SDK/platform/drivers/src/pdb/pdb_driver.o
 .debug_loc     0x0000124c      0x300 ./SDK/platform/drivers/src/interrupt/interrupt_manager.o
 .debug_loc     0x0000154c      0x1bb ./SDK/platform/drivers/src/clock/clock_manager.o
 .debug_loc     0x00001707     0x4b64 ./SDK/platform/drivers/src/clock/S32K1xx/clock_S32K1xx.o
 .debug_loc     0x0000626b     0x130a ./SDK/platform/drivers/src/adc/adc_driver.o
 .debug_loc     0x00007575       0xae ./SDK/platform/devices/startup.o
 .debug_loc     0x00007623      0x115 ./SDK/platform/devices/S32K144/startup/system_S32K144.o
