	.syntax unified
	.cpu cortex-m4
	.eabi_attribute 27, 1
	.eabi_attribute 28, 1
	.fpu fpv4-sp-d16
	.eabi_attribute 20, 1
	.eabi_attribute 21, 1
	.eabi_attribute 23, 3
	.eabi_attribute 24, 1
	.eabi_attribute 25, 1
	.eabi_attribute 26, 1
	.eabi_attribute 30, 1
	.eabi_attribute 34, 1
	.eabi_attribute 18, 4
	.thumb
	.file	"helper_functions.c"
	.text
.Ltext0:
	.cfi_sections	.debug_frame
	.section	.text.floatToStr,"ax",%progbits
	.align	2
	.global	floatToStr
	.thumb
	.thumb_func
	.type	floatToStr, %function
floatToStr:
.LFB0:
	.file 1 "../Sources/helper_functions.c"
	.loc 1 31 0
	.cfi_startproc
	@ args = 0, pretend = 0, frame = 8
	@ frame_needed = 0, uses_anonymous_args = 0
.LVL0:
	.loc 1 33 0
	flds	s13, [r0]
.LVL1:
	.loc 1 36 0
	fcmpezs	s13
	fmstat
	bpl	.L2
	.loc 1 38 0
	fnegs	s13, s13
.LVL2:
	.loc 1 39 0
	movs	r3, #45
	strb	r3, [r1], #1
.LVL3:
.L2:
	.loc 1 42 0 discriminator 1
	cbz	r2, .L15
	.loc 1 31 0
	push	{r4, r5, r6, r7, lr}
	.cfi_def_cfa_offset 20
	.cfi_offset 4, -20
	.cfi_offset 5, -16
	.cfi_offset 6, -12
	.cfi_offset 7, -8
	.cfi_offset 14, -4
	sub	sp, sp, #12
	.cfi_def_cfa_offset 32
	.loc 1 42 0
	movs	r4, #0
	mov	r6, r4
	.loc 1 48 0
	fconsts	s11, #112
	.loc 1 50 0
	mov	lr, #46
	.loc 1 52 0
	movs	r7, #1
	.loc 1 54 0
	fconsts	s12, #36
.LVL4:
.L7:
	.loc 1 44 0
	ftouizs	s14, s13
	fsts	s14, [sp, #4]	@ int
	ldrb	r3, [sp, #4]	@ zero_extendqisi2
.LVL5:
	.loc 1 45 0
	add	r5, r3, #48
	mov	r0, r1
	strb	r5, [r0], #1
.LVL6:
	.loc 1 47 0
	fmsr	s15, r3	@ int
	fsitos	s15, s15
	fsubs	s13, s13, s15
.LVL7:
	.loc 1 48 0
	fcmpes	s13, s11
	fmstat
	bpl	.L13
	.loc 1 48 0 is_stmt 0 discriminator 1
	cbnz	r6, .L9
	.loc 1 50 0 is_stmt 1
	strb	lr, [r1, #1]
	.loc 1 51 0
	adds	r1, r1, #2
.LVL8:
	.loc 1 52 0
	mov	r6, r7
	b	.L5
.LVL9:
.L13:
	.loc 1 46 0
	mov	r1, r0
	b	.L5
.L9:
	mov	r1, r0
.LVL10:
.L5:
	.loc 1 54 0 discriminator 2
	fmuls	s13, s13, s12
.LVL11:
	adds	r4, r4, #1
.LVL12:
	.loc 1 42 0 discriminator 2
	uxtb	r3, r4
.LVL13:
	cmp	r2, r3
	bhi	.L7
	.loc 1 56 0
	movs	r3, #0
	strb	r3, [r1]
	.loc 1 57 0
	add	sp, sp, #12
	.cfi_def_cfa_offset 20
	@ sp needed
	pop	{r4, r5, r6, r7, pc}
.LVL14:
.L15:
	.cfi_def_cfa_offset 0
	.cfi_restore 4
	.cfi_restore 5
	.cfi_restore 6
	.cfi_restore 7
	.cfi_restore 14
	.loc 1 56 0
	movs	r3, #0
	strb	r3, [r1]
	bx	lr
	.cfi_endproc
.LFE0:
	.size	floatToStr, .-floatToStr
	.section	.text.delayCycles,"ax",%progbits
	.align	2
	.global	delayCycles
	.thumb
	.thumb_func
	.type	delayCycles, %function
delayCycles:
.LFB1:
	.loc 1 65 0
	.cfi_startproc
	@ args = 0, pretend = 0, frame = 8
	@ frame_needed = 0, uses_anonymous_args = 0
	@ link register save eliminated.
.LVL15:
	sub	sp, sp, #8
	.cfi_def_cfa_offset 8
	.loc 1 66 0
	str	r0, [sp, #4]
.L17:
	.loc 1 67 0 discriminator 1
	ldr	r3, [sp, #4]
	subs	r2, r3, #1
	str	r2, [sp, #4]
	cmp	r3, #0
	bne	.L17
	.loc 1 69 0
	add	sp, sp, #8
	.cfi_def_cfa_offset 0
	@ sp needed
	bx	lr
	.cfi_endproc
.LFE1:
	.size	delayCycles, .-delayCycles
	.section	.text.enableFPU,"ax",%progbits
	.align	2
	.global	enableFPU
	.thumb
	.thumb_func
	.type	enableFPU, %function
enableFPU:
.LFB2:
	.loc 1 77 0
	.cfi_startproc
	@ args = 0, pretend = 0, frame = 0
	@ frame_needed = 0, uses_anonymous_args = 0
	@ link register save eliminated.
	.loc 1 79 0
	mov	r2, #-536813568
	ldr	r3, [r2, #3464]
	orr	r3, r3, #15728640
	str	r3, [r2, #3464]
	bx	lr
	.cfi_endproc
.LFE2:
	.size	enableFPU, .-enableFPU
	.text
.Letext0:
	.file 2 "c:\\nxp\\s32ds_arm_v2.0\\cross_tools\\gcc-arm-none-eabi-4_9\\arm-none-eabi\\include\\machine\\_default_types.h"
	.file 3 "c:\\nxp\\s32ds_arm_v2.0\\cross_tools\\gcc-arm-none-eabi-4_9\\arm-none-eabi\\include\\sys\\_stdint.h"
	.file 4 "C:/NXP/S32DS_ARM_v2.0/S32DS/S32SDK_S32K14x_EAR_0.8.4/platform/devices/S32K144/include/S32K144.h"